   1               		.file	"temptester_pde.cpp"
   2               	__SREG__ = 0x3f
   3               	__SP_H__ = 0x3e
   4               	__SP_L__ = 0x3d
   5               	__CCP__  = 0x34
   6               	__tmp_reg__ = 0
   7               	__zero_reg__ = 1
   8               		.global __do_copy_data
   9               		.global __do_clear_bss
  17               	.Ltext0:
  18               		.data
  19               	.LC0:
  20 0000 5465 6D70 		.string	"Temp reading = "
  20      2072 6561 
  20      6469 6E67 
  20      203D 2000 
  21               	.LC1:
  22 0010 202D 2000 		.string	" - "
  23               	.LC2:
  24 0014 2076 6F6C 		.string	" volts"
  24      7473 00
  25               	.LC3:
  26 001b 2064 6567 		.string	" degress C"
  26      7265 7373 
  26      2043 00
  27               	.LC4:
  28 0026 2064 6567 		.string	" degress F"
  28      7265 7373 
  28      2046 00
  29               		.section	.text.loop,"ax",@progbits
  30               	.global	loop
  32               	loop:
  33               	.LFB28:
  34               	.LSM0:
  35 0000 CF92      		push r12
  36 0002 DF92      		push r13
  37 0004 EF92      		push r14
  38 0006 FF92      		push r15
  39 0008 0F93      		push r16
  40 000a 1F93      		push r17
  41               	/* prologue: function */
  42               	/* frame size = 0 */
  43               	.LBB2:
  44               	.LSM1:
  45 000c 8091 0000 		lds r24,tempPin
  46 0010 0E94 0000 		call analogRead
  47 0014 9093 0000 		sts (tempReading)+1,r25
  48 0018 8093 0000 		sts tempReading,r24
  49               	.LSM2:
  50 001c 80E0      		ldi r24,lo8(Serial)
  51 001e C82E      		mov r12,r24
  52 0020 80E0      		ldi r24,hi8(Serial)
  53 0022 D82E      		mov r13,r24
  54 0024 C601      		movw r24,r12
  55 0026 60E0      		ldi r22,lo8(.LC0)
  56 0028 70E0      		ldi r23,hi8(.LC0)
  57 002a 0E94 0000 		call _ZN5Print5printEPKc
  58               	.LSM3:
  59 002e 6091 0000 		lds r22,tempReading
  60 0032 7091 0000 		lds r23,(tempReading)+1
  61 0036 C601      		movw r24,r12
  62 0038 4AE0      		ldi r20,lo8(10)
  63 003a 50E0      		ldi r21,hi8(10)
  64 003c 0E94 0000 		call _ZN5Print5printEii
  65               	.LSM4:
  66 0040 6091 0000 		lds r22,tempReading
  67 0044 7091 0000 		lds r23,(tempReading)+1
  68 0048 8827      		clr r24
  69 004a 77FD      		sbrc r23,7
  70 004c 8095      		com r24
  71 004e 982F      		mov r25,r24
  72 0050 0E94 0000 		call __floatsisf
  73 0054 23E3      		ldi r18,lo8(0x40533333)
  74 0056 33E3      		ldi r19,hi8(0x40533333)
  75 0058 43E5      		ldi r20,hlo8(0x40533333)
  76 005a 50E4      		ldi r21,hhi8(0x40533333)
  77 005c 0E94 0000 		call __mulsf3
  78               	.LSM5:
  79 0060 20E0      		ldi r18,lo8(0x3a800000)
  80 0062 30E0      		ldi r19,hi8(0x3a800000)
  81 0064 40E8      		ldi r20,hlo8(0x3a800000)
  82 0066 5AE3      		ldi r21,hhi8(0x3a800000)
  83 0068 0E94 0000 		call __mulsf3
  84 006c 7B01      		movw r14,r22
  85 006e 8C01      		movw r16,r24
  86               	.LSM6:
  87 0070 C601      		movw r24,r12
  88 0072 60E0      		ldi r22,lo8(.LC1)
  89 0074 70E0      		ldi r23,hi8(.LC1)
  90 0076 0E94 0000 		call _ZN5Print5printEPKc
  91               	.LSM7:
  92 007a C601      		movw r24,r12
  93 007c B801      		movw r22,r16
  94 007e A701      		movw r20,r14
  95 0080 22E0      		ldi r18,lo8(2)
  96 0082 30E0      		ldi r19,hi8(2)
  97 0084 0E94 0000 		call _ZN5Print5printEdi
  98 0088 C601      		movw r24,r12
  99 008a 60E0      		ldi r22,lo8(.LC2)
 100 008c 70E0      		ldi r23,hi8(.LC2)
 101 008e 0E94 0000 		call _ZN5Print7printlnEPKc
 102               	.LSM8:
 103 0092 C801      		movw r24,r16
 104 0094 B701      		movw r22,r14
 105 0096 20E0      		ldi r18,lo8(0x3f000000)
 106 0098 30E0      		ldi r19,hi8(0x3f000000)
 107 009a 40E0      		ldi r20,hlo8(0x3f000000)
 108 009c 5FE3      		ldi r21,hhi8(0x3f000000)
 109 009e 0E94 0000 		call __subsf3
 110 00a2 20E0      		ldi r18,lo8(0x42c80000)
 111 00a4 30E0      		ldi r19,hi8(0x42c80000)
 112 00a6 48EC      		ldi r20,hlo8(0x42c80000)
 113 00a8 52E4      		ldi r21,hhi8(0x42c80000)
 114 00aa 0E94 0000 		call __mulsf3
 115 00ae 7B01      		movw r14,r22
 116 00b0 8C01      		movw r16,r24
 117               	.LSM9:
 118 00b2 C601      		movw r24,r12
 119 00b4 B801      		movw r22,r16
 120 00b6 A701      		movw r20,r14
 121 00b8 22E0      		ldi r18,lo8(2)
 122 00ba 30E0      		ldi r19,hi8(2)
 123 00bc 0E94 0000 		call _ZN5Print5printEdi
 124 00c0 C601      		movw r24,r12
 125 00c2 60E0      		ldi r22,lo8(.LC3)
 126 00c4 70E0      		ldi r23,hi8(.LC3)
 127 00c6 0E94 0000 		call _ZN5Print7printlnEPKc
 128               	.LSM10:
 129 00ca C801      		movw r24,r16
 130 00cc B701      		movw r22,r14
 131 00ce 20E0      		ldi r18,lo8(0x41100000)
 132 00d0 30E0      		ldi r19,hi8(0x41100000)
 133 00d2 40E1      		ldi r20,hlo8(0x41100000)
 134 00d4 51E4      		ldi r21,hhi8(0x41100000)
 135 00d6 0E94 0000 		call __mulsf3
 136 00da 20E0      		ldi r18,lo8(0x40a00000)
 137 00dc 30E0      		ldi r19,hi8(0x40a00000)
 138 00de 40EA      		ldi r20,hlo8(0x40a00000)
 139 00e0 50E4      		ldi r21,hhi8(0x40a00000)
 140 00e2 0E94 0000 		call __divsf3
 141 00e6 20E0      		ldi r18,lo8(0x42000000)
 142 00e8 30E0      		ldi r19,hi8(0x42000000)
 143 00ea 40E0      		ldi r20,hlo8(0x42000000)
 144 00ec 52E4      		ldi r21,hhi8(0x42000000)
 145 00ee 0E94 0000 		call __addsf3
 146 00f2 AB01      		movw r20,r22
 147 00f4 BC01      		movw r22,r24
 148 00f6 C601      		movw r24,r12
 149 00f8 22E0      		ldi r18,lo8(2)
 150 00fa 30E0      		ldi r19,hi8(2)
 151 00fc 0E94 0000 		call _ZN5Print5printEdi
 152 0100 C601      		movw r24,r12
 153 0102 60E0      		ldi r22,lo8(.LC4)
 154 0104 70E0      		ldi r23,hi8(.LC4)
 155 0106 0E94 0000 		call _ZN5Print7printlnEPKc
 156               	.LSM11:
 157 010a 68EE      		ldi r22,lo8(1000)
 158 010c 73E0      		ldi r23,hi8(1000)
 159 010e 80E0      		ldi r24,hlo8(1000)
 160 0110 90E0      		ldi r25,hhi8(1000)
 161 0112 0E94 0000 		call delay
 162               	/* epilogue start */
 163               	.LBE2:
 164               	.LSM12:
 165 0116 1F91      		pop r17
 166 0118 0F91      		pop r16
 167 011a FF90      		pop r15
 168 011c EF90      		pop r14
 169 011e DF90      		pop r13
 170 0120 CF90      		pop r12
 171 0122 0895      		ret
 172               	.LFE28:
 174               		.section	.text.setup,"ax",@progbits
 175               	.global	setup
 177               	setup:
 178               	.LFB27:
 179               	.LSM13:
 180               	/* prologue: function */
 181               	/* frame size = 0 */
 182               	.LSM14:
 183 0000 80E0      		ldi r24,lo8(Serial)
 184 0002 90E0      		ldi r25,hi8(Serial)
 185 0004 40E8      		ldi r20,lo8(9600)
 186 0006 55E2      		ldi r21,hi8(9600)
 187 0008 60E0      		ldi r22,hlo8(9600)
 188 000a 70E0      		ldi r23,hhi8(9600)
 189 000c 0E94 0000 		call _ZN14HardwareSerial5beginEl
 190               	.LSM15:
 191 0010 80E0      		ldi r24,lo8(0)
 192 0012 0E94 0000 		call analogReference
 193               	/* epilogue start */
 194               	.LSM16:
 195 0016 0895      		ret
 196               	.LFE27:
 198               	.global	tempPin
 199               		.section	.data.tempPin,"aw",@progbits
 202               	tempPin:
 203 0000 0100      		.word	1
 204               	.global	tempReading
 205               		.section	.bss.tempReading,"aw",@nobits
 208               	tempReading:
 209 0000 0000      		.skip 2,0
 242               	.Letext0:
DEFINED SYMBOLS
                            *ABS*:00000000 temptester_pde.cpp
/var/folders/6v/2vwt01v529l7cbx7ts4b06bm0000gn/T//ccCJKsjx.s:2      *ABS*:0000003f __SREG__
/var/folders/6v/2vwt01v529l7cbx7ts4b06bm0000gn/T//ccCJKsjx.s:3      *ABS*:0000003e __SP_H__
/var/folders/6v/2vwt01v529l7cbx7ts4b06bm0000gn/T//ccCJKsjx.s:4      *ABS*:0000003d __SP_L__
/var/folders/6v/2vwt01v529l7cbx7ts4b06bm0000gn/T//ccCJKsjx.s:5      *ABS*:00000034 __CCP__
/var/folders/6v/2vwt01v529l7cbx7ts4b06bm0000gn/T//ccCJKsjx.s:6      *ABS*:00000000 __tmp_reg__
/var/folders/6v/2vwt01v529l7cbx7ts4b06bm0000gn/T//ccCJKsjx.s:7      *ABS*:00000001 __zero_reg__
/var/folders/6v/2vwt01v529l7cbx7ts4b06bm0000gn/T//ccCJKsjx.s:32     .text.loop:00000000 loop
/var/folders/6v/2vwt01v529l7cbx7ts4b06bm0000gn/T//ccCJKsjx.s:202    .data.tempPin:00000000 tempPin
/var/folders/6v/2vwt01v529l7cbx7ts4b06bm0000gn/T//ccCJKsjx.s:208    .bss.tempReading:00000000 tempReading
/var/folders/6v/2vwt01v529l7cbx7ts4b06bm0000gn/T//ccCJKsjx.s:177    .text.setup:00000000 setup

UNDEFINED SYMBOLS
__do_copy_data
__do_clear_bss
analogRead
Serial
_ZN5Print5printEPKc
_ZN5Print5printEii
__floatsisf
__mulsf3
_ZN5Print5printEdi
_ZN5Print7printlnEPKc
__subsf3
__divsf3
__addsf3
delay
_ZN14HardwareSerial5beginEl
analogReference
