   1               		.file	"WString.cpp"
   2               	__SREG__ = 0x3f
   3               	__SP_H__ = 0x3e
   4               	__SP_L__ = 0x3d
   5               	__CCP__  = 0x34
   6               	__tmp_reg__ = 0
   7               	__zero_reg__ = 1
   8               		.global __do_copy_data
   9               		.global __do_clear_bss
  17               	.Ltext0:
  18               		.section	.text._ZN6String9setCharAtEjc,"ax",@progbits
  19               	.global	String::setCharAt(unsigned int, char)
  21               	String::setCharAt(unsigned int, char):
  22               	.LFB52:
  23               	.LSM0:
  24               	.LVL0:
  25               	/* prologue: function */
  26               	/* frame size = 0 */
  27 0000 DC01      		movw r26,r24
  28               	.LSM1:
  29 0002 ED91      		ld r30,X+
  30 0004 FC91      		ld r31,X
  31 0006 1197      		sbiw r26,1
  32 0008 3097      		sbiw r30,0
  33 000a 01F0      		breq .L3
  34               	.LVL1:
  35               	.LSM2:
  36 000c 1496      		adiw r26,4
  37 000e 8D91      		ld r24,X+
  38 0010 9C91      		ld r25,X
  39 0012 1597      		sbiw r26,4+1
  40 0014 6817      		cp r22,r24
  41 0016 7907      		cpc r23,r25
  42 0018 00F4      		brsh .L3
  43               	.LSM3:
  44 001a E60F      		add r30,r22
  45 001c F71F      		adc r31,r23
  46 001e 4083      		st Z,r20
  47               	.LVL2:
  48               	.L3:
  49 0020 0895      		ret
  50               	.LFE52:
  52               		.section	.text._ZN6StringixEj,"ax",@progbits
  53               	.global	String::operator[](unsigned int)
  55               	String::operator[](unsigned int):
  56               	.LFB63:
  57               	.LSM4:
  58               	.LVL3:
  59               	/* prologue: function */
  60               	/* frame size = 0 */
  61 0000 FC01      		movw r30,r24
  62 0002 9B01      		movw r18,r22
  63               	.LBB4:
  64               	.LSM5:
  65 0004 8481      		ldd r24,Z+4
  66 0006 9581      		ldd r25,Z+5
  67               	.LVL4:
  68 0008 6817      		cp r22,r24
  69 000a 7907      		cpc r23,r25
  70 000c 00F4      		brsh .L5
  71 000e 6081      		ld r22,Z
  72 0010 7181      		ldd r23,Z+1
  73               	.LVL5:
  74 0012 6115      		cp r22,__zero_reg__
  75 0014 7105      		cpc r23,__zero_reg__
  76 0016 01F4      		brne .L6
  77               	.LVL6:
  78               	.L5:
  79               	.LSM6:
  80 0018 1092 0000 		sts String::operator[](unsigned int)::dummy_writable_char,__zero_reg__
  81 001c 60E0      		ldi r22,lo8(String::operator[](unsigned int)::dummy_writable_char)
  82 001e 70E0      		ldi r23,hi8(String::operator[](unsigned int)::dummy_writable_char)
  83 0020 00C0      		rjmp .L7
  84               	.L6:
  85               	.LSM7:
  86 0022 620F      		add r22,r18
  87 0024 731F      		adc r23,r19
  88               	.L7:
  89               	.LBE4:
  90               	.LSM8:
  91 0026 CB01      		movw r24,r22
  92               	/* epilogue start */
  93 0028 0895      		ret
  94               	.LFE63:
  96               		.section	.text._ZNK6StringixEj,"ax",@progbits
  97               	.global	String::operator[](unsigned int) const
  99               	String::operator[](unsigned int) const:
 100               	.LFB64:
 101               	.LSM9:
 102               	.LVL7:
 103               	/* prologue: function */
 104               	/* frame size = 0 */
 105 0000 FC01      		movw r30,r24
 106               	.LSM10:
 107 0002 0190      		ld __tmp_reg__,Z+
 108 0004 F081      		ld r31,Z
 109 0006 E02D      		mov r30,__tmp_reg__
 110 0008 E60F      		add r30,r22
 111 000a F71F      		adc r31,r23
 112               	.LSM11:
 113 000c 8081      		ld r24,Z
 114               	.LVL8:
 115               	/* epilogue start */
 116 000e 0895      		ret
 117               	.LFE64:
 119               		.section	.text._ZNK6String6charAtEj,"ax",@progbits
 120               	.global	String::charAt(unsigned int) const
 122               	String::charAt(unsigned int) const:
 123               	.LFB51:
 124               	.LSM12:
 125               	.LVL9:
 126               	/* prologue: function */
 127               	/* frame size = 0 */
 128               	.LSM13:
 129 0000 0E94 0000 		call String::operator[](unsigned int) const
 130               	.LVL10:
 131               	/* epilogue start */
 132               	.LSM14:
 133 0004 0895      		ret
 134               	.LFE51:
 136               		.section	.text._ZN6String5toIntEv,"ax",@progbits
 137               	.global	String::toInt()
 139               	String::toInt():
 140               	.LFB87:
 141               	.LSM15:
 142               	.LVL11:
 143               	/* prologue: function */
 144               	/* frame size = 0 */
 145 0000 FC01      		movw r30,r24
 146               	.LSM16:
 147 0002 8081      		ld r24,Z
 148 0004 9181      		ldd r25,Z+1
 149               	.LVL12:
 150 0006 0E94 0000 		call atol
 151               	.LVL13:
 152               	/* epilogue start */
 153               	.LSM17:
 154 000a 0895      		ret
 155               	.LFE87:
 157               		.section	.text._ZN6String11toCharArrayEPcj,"ax",@progbits
 158               	.global	String::toCharArray(char*, unsigned int)
 160               	String::toCharArray(char*, unsigned int):
 161               	.LFB86:
 162               	.LSM18:
 163               	.LVL14:
 164 0000 0F93      		push r16
 165 0002 1F93      		push r17
 166 0004 CF93      		push r28
 167 0006 DF93      		push r29
 168               	/* prologue: function */
 169               	/* frame size = 0 */
 170 0008 FC01      		movw r30,r24
 171 000a 8B01      		movw r16,r22
 172               	.LBB5:
 173               	.LSM19:
 174 000c 4115      		cp r20,__zero_reg__
 175 000e 5105      		cpc r21,__zero_reg__
 176 0010 01F0      		breq .L18
 177               	.LVL15:
 178 0012 6115      		cp r22,__zero_reg__
 179 0014 7105      		cpc r23,__zero_reg__
 180 0016 01F0      		breq .L18
 181               	.LVL16:
 182               	.LSM20:
 183 0018 8481      		ldd r24,Z+4
 184 001a 9581      		ldd r25,Z+5
 185 001c EA01      		movw r28,r20
 186               	.LVL17:
 187 001e 2197      		sbiw r28,1
 188 0020 8C17      		cp r24,r28
 189 0022 9D07      		cpc r25,r29
 190 0024 00F4      		brsh .L17
 191 0026 EC01      		movw r28,r24
 192               	.L17:
 193               	.LSM21:
 194 0028 6081      		ld r22,Z
 195 002a 7181      		ldd r23,Z+1
 196               	.LVL18:
 197 002c C801      		movw r24,r16
 198 002e AE01      		movw r20,r28
 199               	.LVL19:
 200 0030 0E94 0000 		call strncpy
 201               	.LVL20:
 202               	.LSM22:
 203 0034 C00F      		add r28,r16
 204 0036 D11F      		adc r29,r17
 205 0038 1882      		st Y,__zero_reg__
 206               	.LVL21:
 207               	.L18:
 208               	/* epilogue start */
 209               	.LBE5:
 210               	.LSM23:
 211 003a DF91      		pop r29
 212 003c CF91      		pop r28
 213               	.LVL22:
 214 003e 1F91      		pop r17
 215 0040 0F91      		pop r16
 216               	.LVL23:
 217 0042 0895      		ret
 218               	.LFE86:
 220               		.section	.text._ZN6String8getBytesEPhj,"ax",@progbits
 221               	.global	String::getBytes(unsigned char*, unsigned int)
 223               	String::getBytes(unsigned char*, unsigned int):
 224               	.LFB85:
 225               	.LSM24:
 226               	.LVL24:
 227 0000 0F93      		push r16
 228 0002 1F93      		push r17
 229 0004 CF93      		push r28
 230 0006 DF93      		push r29
 231               	/* prologue: function */
 232               	/* frame size = 0 */
 233 0008 FC01      		movw r30,r24
 234 000a 8B01      		movw r16,r22
 235               	.LBB6:
 236               	.LSM25:
 237 000c 4115      		cp r20,__zero_reg__
 238 000e 5105      		cpc r21,__zero_reg__
 239 0010 01F0      		breq .L22
 240               	.LVL25:
 241 0012 6115      		cp r22,__zero_reg__
 242 0014 7105      		cpc r23,__zero_reg__
 243 0016 01F0      		breq .L22
 244               	.LVL26:
 245               	.LSM26:
 246 0018 8481      		ldd r24,Z+4
 247 001a 9581      		ldd r25,Z+5
 248 001c EA01      		movw r28,r20
 249               	.LVL27:
 250 001e 2197      		sbiw r28,1
 251 0020 8C17      		cp r24,r28
 252 0022 9D07      		cpc r25,r29
 253 0024 00F4      		brsh .L21
 254 0026 EC01      		movw r28,r24
 255               	.L21:
 256               	.LSM27:
 257 0028 6081      		ld r22,Z
 258 002a 7181      		ldd r23,Z+1
 259               	.LVL28:
 260 002c C801      		movw r24,r16
 261 002e AE01      		movw r20,r28
 262               	.LVL29:
 263 0030 0E94 0000 		call strncpy
 264               	.LVL30:
 265               	.LSM28:
 266 0034 C00F      		add r28,r16
 267 0036 D11F      		adc r29,r17
 268 0038 1882      		st Y,__zero_reg__
 269               	.LVL31:
 270               	.L22:
 271               	/* epilogue start */
 272               	.LBE6:
 273               	.LSM29:
 274 003a DF91      		pop r29
 275 003c CF91      		pop r28
 276               	.LVL32:
 277 003e 1F91      		pop r17
 278 0040 0F91      		pop r16
 279               	.LVL33:
 280 0042 0895      		ret
 281               	.LFE85:
 283               		.section	.text._ZN6StringD1Ev,"ax",@progbits
 284               		.weak	String::~String()
 286               	String::~String():
 287               	.LFB22:
 288               	.LSM30:
 289               	.LVL34:
 290 0000 0F93      		push r16
 291 0002 1F93      		push r17
 292               	/* prologue: function */
 293               	/* frame size = 0 */
 294 0004 8C01      		movw r16,r24
 295               	.LSM31:
 296 0006 FC01      		movw r30,r24
 297 0008 8081      		ld r24,Z
 298 000a 9181      		ldd r25,Z+1
 299               	.LVL35:
 300 000c 0E94 0000 		call free
 301 0010 F801      		movw r30,r16
 302 0012 1382      		std Z+3,__zero_reg__
 303 0014 1282      		std Z+2,__zero_reg__
 304 0016 1582      		std Z+5,__zero_reg__
 305 0018 1482      		std Z+4,__zero_reg__
 306               	/* epilogue start */
 307 001a 1F91      		pop r17
 308 001c 0F91      		pop r16
 309               	.LVL36:
 310 001e 0895      		ret
 311               	.LFE22:
 313               		.section	.text._ZNK6String10startsWithERKS_j,"ax",@progbits
 314               	.global	String::startsWith(String const&, unsigned int) const
 316               	String::startsWith(String const&, unsigned int) const:
 317               	.LFB79:
 318               	.LSM32:
 319               	.LVL37:
 320               	/* prologue: function */
 321               	/* frame size = 0 */
 322 0000 FC01      		movw r30,r24
 323 0002 DB01      		movw r26,r22
 324               	.LSM33:
 325 0004 1496      		adiw r26,4
 326 0006 2D91      		ld r18,X+
 327 0008 3C91      		ld r19,X
 328 000a 1597      		sbiw r26,4+1
 329 000c 8481      		ldd r24,Z+4
 330 000e 9581      		ldd r25,Z+5
 331               	.LVL38:
 332 0010 821B      		sub r24,r18
 333 0012 930B      		sbc r25,r19
 334 0014 8417      		cp r24,r20
 335 0016 9507      		cpc r25,r21
 336 0018 00F4      		brsh .L27
 337               	.LVL39:
 338 001a 20E0      		ldi r18,lo8(0)
 339 001c 00C0      		rjmp .L28
 340               	.L27:
 341               	.LSM34:
 342 001e 8081      		ld r24,Z
 343 0020 9181      		ldd r25,Z+1
 344 0022 6D91      		ld r22,X+
 345 0024 7C91      		ld r23,X
 346 0026 840F      		add r24,r20
 347 0028 951F      		adc r25,r21
 348 002a A901      		movw r20,r18
 349               	.LVL40:
 350 002c 0E94 0000 		call strncmp
 351               	.LVL41:
 352 0030 20E0      		ldi r18,lo8(0)
 353 0032 892B      		or r24,r25
 354 0034 01F4      		brne .L28
 355 0036 21E0      		ldi r18,lo8(1)
 356               	.LVL42:
 357               	.L28:
 358               	.LSM35:
 359 0038 822F      		mov r24,r18
 360               	/* epilogue start */
 361 003a 0895      		ret
 362               	.LFE79:
 364               		.section	.text._ZNK6String10startsWithERKS_,"ax",@progbits
 365               	.global	String::startsWith(String const&) const
 367               	String::startsWith(String const&) const:
 368               	.LFB78:
 369               	.LSM36:
 370               	.LVL43:
 371               	/* prologue: function */
 372               	/* frame size = 0 */
 373 0000 FC01      		movw r30,r24
 374 0002 DB01      		movw r26,r22
 375               	.LSM37:
 376 0004 2481      		ldd r18,Z+4
 377 0006 3581      		ldd r19,Z+5
 378 0008 1496      		adiw r26,4
 379 000a 8D91      		ld r24,X+
 380 000c 9C91      		ld r25,X
 381 000e 1597      		sbiw r26,4+1
 382               	.LVL44:
 383 0010 2817      		cp r18,r24
 384 0012 3907      		cpc r19,r25
 385 0014 00F4      		brsh .L32
 386               	.LVL45:
 387 0016 80E0      		ldi r24,lo8(0)
 388 0018 0895      		ret
 389               	.L32:
 390               	.LSM38:
 391 001a CF01      		movw r24,r30
 392 001c 40E0      		ldi r20,lo8(0)
 393 001e 50E0      		ldi r21,hi8(0)
 394 0020 0E94 0000 		call String::startsWith(String const&, unsigned int) const
 395               	.LVL46:
 396               	.LSM39:
 397 0024 0895      		ret
 398               	.LFE78:
 400               		.section	.text._ZNK6String11lastIndexOfEcj,"ax",@progbits
 401               	.global	String::lastIndexOf(char, unsigned int) const
 403               	String::lastIndexOf(char, unsigned int) const:
 404               	.LFB75:
 405               	.LSM40:
 406               	.LVL47:
 407 0000 A0E0      		ldi r26,lo8(0)
 408 0002 B0E0      		ldi r27,hi8(0)
 409 0004 E0E0      		ldi r30,lo8(gs(1f))
 410 0006 F0E0      		ldi r31,hi8(gs(1f))
 411 0008 0C94 0000 		jmp __prologue_saves__+((18 - 7) * 2)
 412               	1:
 413               	/* prologue: function */
 414               	/* frame size = 0 */
 415 000c EC01      		movw r28,r24
 416               	.LBB7:
 417               	.LSM41:
 418 000e 8C81      		ldd r24,Y+4
 419 0010 9D81      		ldd r25,Y+5
 420               	.LVL48:
 421 0012 4817      		cp r20,r24
 422 0014 5907      		cpc r21,r25
 423 0016 00F4      		brsh .L40
 424               	.L36:
 425               	.LSM42:
 426 0018 7A01      		movw r14,r20
 427 001a 0894      		sec
 428 001c E11C      		adc r14,__zero_reg__
 429 001e F11C      		adc r15,__zero_reg__
 430 0020 E881      		ld r30,Y
 431 0022 F981      		ldd r31,Y+1
 432 0024 EE0D      		add r30,r14
 433 0026 FF1D      		adc r31,r15
 434 0028 D080      		ld r13,Z
 435               	.LVL49:
 436               	.LSM43:
 437 002a 1082      		st Z,__zero_reg__
 438               	.LSM44:
 439 002c 0881      		ld r16,Y
 440 002e 1981      		ldd r17,Y+1
 441 0030 C801      		movw r24,r16
 442 0032 70E0      		ldi r23,lo8(0)
 443 0034 0E94 0000 		call strrchr
 444               	.LVL50:
 445 0038 FC01      		movw r30,r24
 446               	.LVL51:
 447               	.LSM45:
 448 003a 0E0D      		add r16,r14
 449 003c 1F1D      		adc r17,r15
 450 003e D801      		movw r26,r16
 451 0040 DC92      		st X,r13
 452               	.LSM46:
 453 0042 0097      		sbiw r24,0
 454 0044 01F4      		brne .L38
 455               	.LVL52:
 456               	.L40:
 457 0046 EFEF      		ldi r30,lo8(-1)
 458 0048 FFEF      		ldi r31,hi8(-1)
 459 004a 00C0      		rjmp .L37
 460               	.LVL53:
 461               	.L38:
 462               	.LSM47:
 463 004c 8881      		ld r24,Y
 464 004e 9981      		ldd r25,Y+1
 465               	.LVL54:
 466 0050 E81B      		sub r30,r24
 467 0052 F90B      		sbc r31,r25
 468               	.LVL55:
 469               	.L37:
 470               	.LBE7:
 471               	.LSM48:
 472 0054 CF01      		movw r24,r30
 473               	.LVL56:
 474               	/* epilogue start */
 475 0056 CDB7      		in r28,__SP_L__
 476 0058 DEB7      		in r29,__SP_H__
 477               	.LVL57:
 478 005a E7E0      		ldi r30, lo8(7)
 479 005c 0C94 0000 		jmp __epilogue_restores__ + ((18 - 7) * 2)
 480               	.LFE75:
 482               		.section	.text._ZNK6String11lastIndexOfEc,"ax",@progbits
 483               	.global	String::lastIndexOf(char) const
 485               	String::lastIndexOf(char) const:
 486               	.LFB74:
 487               	.LSM49:
 488               	.LVL58:
 489               	/* prologue: function */
 490               	/* frame size = 0 */
 491 0000 FC01      		movw r30,r24
 492               	.LSM50:
 493 0002 4481      		ldd r20,Z+4
 494 0004 5581      		ldd r21,Z+5
 495 0006 4150      		subi r20,lo8(-(-1))
 496 0008 5040      		sbci r21,hi8(-(-1))
 497 000a 0E94 0000 		call String::lastIndexOf(char, unsigned int) const
 498               	.LVL59:
 499               	/* epilogue start */
 500               	.LSM51:
 501 000e 0895      		ret
 502               	.LFE74:
 504               		.section	.text._ZNK6String7indexOfERKS_j,"ax",@progbits
 505               	.global	String::indexOf(String const&, unsigned int) const
 507               	String::indexOf(String const&, unsigned int) const:
 508               	.LFB73:
 509               	.LSM52:
 510               	.LVL60:
 511 0000 CF93      		push r28
 512 0002 DF93      		push r29
 513               	/* prologue: function */
 514               	/* frame size = 0 */
 515 0004 FC01      		movw r30,r24
 516 0006 DB01      		movw r26,r22
 517               	.LBB8:
 518               	.LSM53:
 519 0008 8481      		ldd r24,Z+4
 520 000a 9581      		ldd r25,Z+5
 521               	.LVL61:
 522 000c 4817      		cp r20,r24
 523 000e 5907      		cpc r21,r25
 524 0010 00F4      		brsh .L48
 525               	.LVL62:
 526               	.L44:
 527               	.LSM54:
 528 0012 C081      		ld r28,Z
 529 0014 D181      		ldd r29,Z+1
 530 0016 6D91      		ld r22,X+
 531 0018 7C91      		ld r23,X
 532 001a CE01      		movw r24,r28
 533 001c 840F      		add r24,r20
 534 001e 951F      		adc r25,r21
 535 0020 0E94 0000 		call strstr
 536               	.LVL63:
 537               	.LSM55:
 538 0024 0097      		sbiw r24,0
 539               	.LVL64:
 540 0026 01F4      		brne .L46
 541               	.LVL65:
 542               	.L48:
 543 0028 2FEF      		ldi r18,lo8(-1)
 544 002a 3FEF      		ldi r19,hi8(-1)
 545 002c 00C0      		rjmp .L45
 546               	.LVL66:
 547               	.L46:
 548               	.LSM56:
 549 002e 9C01      		movw r18,r24
 550 0030 2C1B      		sub r18,r28
 551 0032 3D0B      		sbc r19,r29
 552               	.LVL67:
 553               	.L45:
 554               	.LBE8:
 555               	.LSM57:
 556 0034 C901      		movw r24,r18
 557               	.LVL68:
 558               	/* epilogue start */
 559 0036 DF91      		pop r29
 560 0038 CF91      		pop r28
 561 003a 0895      		ret
 562               	.LFE73:
 564               		.section	.text._ZNK6String7indexOfERKS_,"ax",@progbits
 565               	.global	String::indexOf(String const&) const
 567               	String::indexOf(String const&) const:
 568               	.LFB72:
 569               	.LSM58:
 570               	.LVL69:
 571               	/* prologue: function */
 572               	/* frame size = 0 */
 573               	.LSM59:
 574 0000 40E0      		ldi r20,lo8(0)
 575 0002 50E0      		ldi r21,hi8(0)
 576 0004 0E94 0000 		call String::indexOf(String const&, unsigned int) const
 577               	.LVL70:
 578               	/* epilogue start */
 579               	.LSM60:
 580 0008 0895      		ret
 581               	.LFE72:
 583               		.section	.text._ZNK6String7indexOfEcj,"ax",@progbits
 584               	.global	String::indexOf(char, unsigned int) const
 586               	String::indexOf(char, unsigned int) const:
 587               	.LFB71:
 588               	.LSM61:
 589               	.LVL71:
 590 0000 CF93      		push r28
 591 0002 DF93      		push r29
 592               	/* prologue: function */
 593               	/* frame size = 0 */
 594 0004 FC01      		movw r30,r24
 595               	.LBB9:
 596               	.LSM62:
 597 0006 8481      		ldd r24,Z+4
 598 0008 9581      		ldd r25,Z+5
 599               	.LVL72:
 600 000a 4817      		cp r20,r24
 601 000c 5907      		cpc r21,r25
 602 000e 00F4      		brsh .L56
 603               	.L52:
 604               	.LSM63:
 605 0010 C081      		ld r28,Z
 606 0012 D181      		ldd r29,Z+1
 607 0014 CE01      		movw r24,r28
 608 0016 840F      		add r24,r20
 609 0018 951F      		adc r25,r21
 610 001a 70E0      		ldi r23,lo8(0)
 611 001c 0E94 0000 		call strchr
 612               	.LVL73:
 613               	.LSM64:
 614 0020 0097      		sbiw r24,0
 615               	.LVL74:
 616 0022 01F4      		brne .L54
 617               	.LVL75:
 618               	.L56:
 619 0024 2FEF      		ldi r18,lo8(-1)
 620 0026 3FEF      		ldi r19,hi8(-1)
 621 0028 00C0      		rjmp .L53
 622               	.LVL76:
 623               	.L54:
 624               	.LSM65:
 625 002a 9C01      		movw r18,r24
 626 002c 2C1B      		sub r18,r28
 627 002e 3D0B      		sbc r19,r29
 628               	.LVL77:
 629               	.L53:
 630               	.LBE9:
 631               	.LSM66:
 632 0030 C901      		movw r24,r18
 633               	.LVL78:
 634               	/* epilogue start */
 635 0032 DF91      		pop r29
 636 0034 CF91      		pop r28
 637 0036 0895      		ret
 638               	.LFE71:
 640               		.section	.text._ZNK6String7indexOfEc,"ax",@progbits
 641               	.global	String::indexOf(char) const
 643               	String::indexOf(char) const:
 644               	.LFB70:
 645               	.LSM67:
 646               	.LVL79:
 647               	/* prologue: function */
 648               	/* frame size = 0 */
 649               	.LSM68:
 650 0000 40E0      		ldi r20,lo8(0)
 651 0002 50E0      		ldi r21,hi8(0)
 652 0004 0E94 0000 		call String::indexOf(char, unsigned int) const
 653               	.LVL80:
 654               	/* epilogue start */
 655               	.LSM69:
 656 0008 0895      		ret
 657               	.LFE70:
 659               		.section	.text._ZNK6String6equalsERKS_,"ax",@progbits
 660               	.global	String::equals(String const&) const
 662               	String::equals(String const&) const:
 663               	.LFB66:
 664               	.LSM70:
 665               	.LVL81:
 666               	/* prologue: function */
 667               	/* frame size = 0 */
 668 0000 DC01      		movw r26,r24
 669 0002 FB01      		movw r30,r22
 670               	.LSM71:
 671 0004 1496      		adiw r26,4
 672 0006 2D91      		ld r18,X+
 673 0008 3C91      		ld r19,X
 674 000a 1597      		sbiw r26,4+1
 675 000c 8481      		ldd r24,Z+4
 676 000e 9581      		ldd r25,Z+5
 677               	.LVL82:
 678 0010 2817      		cp r18,r24
 679 0012 3907      		cpc r19,r25
 680 0014 01F0      		breq .L60
 681               	.LVL83:
 682 0016 20E0      		ldi r18,lo8(0)
 683 0018 00C0      		rjmp .L61
 684               	.L60:
 685 001a 6081      		ld r22,Z
 686 001c 7181      		ldd r23,Z+1
 687 001e 8D91      		ld r24,X+
 688 0020 9C91      		ld r25,X
 689 0022 0E94 0000 		call strcmp
 690               	.LVL84:
 691 0026 20E0      		ldi r18,lo8(0)
 692 0028 892B      		or r24,r25
 693 002a 01F4      		brne .L61
 694 002c 21E0      		ldi r18,lo8(1)
 695               	.LVL85:
 696               	.L61:
 697               	.LSM72:
 698 002e 822F      		mov r24,r18
 699               	/* epilogue start */
 700 0030 0895      		ret
 701               	.LFE66:
 703               		.section	.text._ZNK6String8endsWithERKS_,"ax",@progbits
 704               	.global	String::endsWith(String const&) const
 706               	String::endsWith(String const&) const:
 707               	.LFB65:
 708               	.LSM73:
 709               	.LVL86:
 710               	/* prologue: function */
 711               	/* frame size = 0 */
 712 0000 FC01      		movw r30,r24
 713 0002 DB01      		movw r26,r22
 714               	.LSM74:
 715 0004 2481      		ldd r18,Z+4
 716 0006 3581      		ldd r19,Z+5
 717 0008 1496      		adiw r26,4
 718 000a 8D91      		ld r24,X+
 719 000c 9C91      		ld r25,X
 720 000e 1597      		sbiw r26,4+1
 721               	.LVL87:
 722 0010 2817      		cp r18,r24
 723 0012 3907      		cpc r19,r25
 724 0014 00F4      		brsh .L65
 725               	.LVL88:
 726 0016 20E0      		ldi r18,lo8(0)
 727 0018 00C0      		rjmp .L66
 728               	.L65:
 729               	.LSM75:
 730 001a 281B      		sub r18,r24
 731 001c 390B      		sbc r19,r25
 732 001e 8081      		ld r24,Z
 733 0020 9181      		ldd r25,Z+1
 734 0022 6D91      		ld r22,X+
 735 0024 7C91      		ld r23,X
 736 0026 820F      		add r24,r18
 737 0028 931F      		adc r25,r19
 738 002a 0E94 0000 		call strcmp
 739               	.LVL89:
 740 002e 20E0      		ldi r18,lo8(0)
 741 0030 892B      		or r24,r25
 742 0032 01F4      		brne .L66
 743 0034 21E0      		ldi r18,lo8(1)
 744               	.LVL90:
 745               	.L66:
 746               	.LSM76:
 747 0036 822F      		mov r24,r18
 748               	/* epilogue start */
 749 0038 0895      		ret
 750               	.LFE65:
 752               		.section	.text._ZNK6StringgeERKS_,"ax",@progbits
 753               	.global	String::operator>=(String const&) const
 755               	String::operator>=(String const&) const:
 756               	.LFB62:
 757               	.LSM77:
 758               	.LVL91:
 759               	/* prologue: function */
 760               	/* frame size = 0 */
 761 0000 DC01      		movw r26,r24
 762 0002 FB01      		movw r30,r22
 763               	.LSM78:
 764 0004 6081      		ld r22,Z
 765 0006 7181      		ldd r23,Z+1
 766               	.LVL92:
 767 0008 8D91      		ld r24,X+
 768 000a 9C91      		ld r25,X
 769               	.LVL93:
 770 000c 0E94 0000 		call strcmp
 771               	.LVL94:
 772 0010 292F      		mov r18,r25
 773 0012 3327      		clr r19
 774 0014 27FD      		sbrc r18,7
 775 0016 3095      		com r19
 776 0018 2095      		com r18
 777 001a 3095      		com r19
 778 001c 2227      		clr r18
 779 001e 330F      		lsl r19
 780 0020 221F      		rol r18
 781 0022 3327      		clr r19
 782               	.LSM79:
 783 0024 C901      		movw r24,r18
 784               	/* epilogue start */
 785 0026 0895      		ret
 786               	.LFE62:
 788               		.section	.text._ZNK6StringleERKS_,"ax",@progbits
 789               	.global	String::operator<=(String const&) const
 791               	String::operator<=(String const&) const:
 792               	.LFB61:
 793               	.LSM80:
 794               	.LVL95:
 795               	/* prologue: function */
 796               	/* frame size = 0 */
 797 0000 FC01      		movw r30,r24
 798 0002 DB01      		movw r26,r22
 799               	.LSM81:
 800 0004 6D91      		ld r22,X+
 801 0006 7C91      		ld r23,X
 802               	.LVL96:
 803 0008 8081      		ld r24,Z
 804 000a 9181      		ldd r25,Z+1
 805               	.LVL97:
 806 000c 0E94 0000 		call strcmp
 807               	.LVL98:
 808 0010 20E0      		ldi r18,lo8(0)
 809 0012 30E0      		ldi r19,hi8(0)
 810 0014 1816      		cp __zero_reg__,r24
 811 0016 1906      		cpc __zero_reg__,r25
 812 0018 04F0      		brlt .L73
 813 001a 21E0      		ldi r18,lo8(1)
 814 001c 30E0      		ldi r19,hi8(1)
 815               	.L73:
 816               	.LSM82:
 817 001e C901      		movw r24,r18
 818               	/* epilogue start */
 819 0020 0895      		ret
 820               	.LFE61:
 822               		.section	.text._ZNK6StringgtERKS_,"ax",@progbits
 823               	.global	String::operator>(String const&) const
 825               	String::operator>(String const&) const:
 826               	.LFB60:
 827               	.LSM83:
 828               	.LVL99:
 829               	/* prologue: function */
 830               	/* frame size = 0 */
 831 0000 FC01      		movw r30,r24
 832 0002 DB01      		movw r26,r22
 833               	.LSM84:
 834 0004 6D91      		ld r22,X+
 835 0006 7C91      		ld r23,X
 836               	.LVL100:
 837 0008 8081      		ld r24,Z
 838 000a 9181      		ldd r25,Z+1
 839               	.LVL101:
 840 000c 0E94 0000 		call strcmp
 841               	.LVL102:
 842 0010 20E0      		ldi r18,lo8(0)
 843 0012 30E0      		ldi r19,hi8(0)
 844 0014 1816      		cp __zero_reg__,r24
 845 0016 1906      		cpc __zero_reg__,r25
 846 0018 04F4      		brge .L76
 847 001a 21E0      		ldi r18,lo8(1)
 848 001c 30E0      		ldi r19,hi8(1)
 849               	.L76:
 850               	.LSM85:
 851 001e C901      		movw r24,r18
 852               	/* epilogue start */
 853 0020 0895      		ret
 854               	.LFE60:
 856               		.section	.text._ZNK6StringltERKS_,"ax",@progbits
 857               	.global	String::operator<(String const&) const
 859               	String::operator<(String const&) const:
 860               	.LFB59:
 861               	.LSM86:
 862               	.LVL103:
 863               	/* prologue: function */
 864               	/* frame size = 0 */
 865 0000 DC01      		movw r26,r24
 866 0002 FB01      		movw r30,r22
 867               	.LSM87:
 868 0004 6081      		ld r22,Z
 869 0006 7181      		ldd r23,Z+1
 870               	.LVL104:
 871 0008 8D91      		ld r24,X+
 872 000a 9C91      		ld r25,X
 873               	.LVL105:
 874 000c 0E94 0000 		call strcmp
 875               	.LVL106:
 876 0010 292F      		mov r18,r25
 877 0012 3327      		clr r19
 878 0014 27FD      		sbrc r18,7
 879 0016 3095      		com r19
 880 0018 2227      		clr r18
 881 001a 330F      		lsl r19
 882 001c 221F      		rol r18
 883 001e 3327      		clr r19
 884               	.LSM88:
 885 0020 C901      		movw r24,r18
 886               	/* epilogue start */
 887 0022 0895      		ret
 888               	.LFE59:
 890               		.section	.text._ZNK6StringneERKS_,"ax",@progbits
 891               	.global	String::operator!=(String const&) const
 893               	String::operator!=(String const&) const:
 894               	.LFB58:
 895               	.LSM89:
 896               	.LVL107:
 897               	/* prologue: function */
 898               	/* frame size = 0 */
 899 0000 DC01      		movw r26,r24
 900 0002 FB01      		movw r30,r22
 901               	.LSM90:
 902 0004 1496      		adiw r26,4
 903 0006 2D91      		ld r18,X+
 904 0008 3C91      		ld r19,X
 905 000a 1597      		sbiw r26,4+1
 906 000c 8481      		ldd r24,Z+4
 907 000e 9581      		ldd r25,Z+5
 908               	.LVL108:
 909 0010 2817      		cp r18,r24
 910 0012 3907      		cpc r19,r25
 911 0014 01F4      		brne .L86
 912               	.LVL109:
 913               	.L82:
 914 0016 6081      		ld r22,Z
 915 0018 7181      		ldd r23,Z+1
 916 001a 8D91      		ld r24,X+
 917 001c 9C91      		ld r25,X
 918 001e 0E94 0000 		call strcmp
 919               	.LVL110:
 920 0022 20E0      		ldi r18,lo8(0)
 921 0024 892B      		or r24,r25
 922 0026 01F0      		breq .L83
 923               	.LVL111:
 924               	.L86:
 925 0028 21E0      		ldi r18,lo8(1)
 926               	.L83:
 927               	.LSM91:
 928 002a 822F      		mov r24,r18
 929 002c 90E0      		ldi r25,lo8(0)
 930               	/* epilogue start */
 931 002e 0895      		ret
 932               	.LFE58:
 934               		.section	.text._ZNK6StringeqERKS_,"ax",@progbits
 935               	.global	String::operator==(String const&) const
 937               	String::operator==(String const&) const:
 938               	.LFB57:
 939               	.LSM92:
 940               	.LVL112:
 941               	/* prologue: function */
 942               	/* frame size = 0 */
 943 0000 DC01      		movw r26,r24
 944 0002 FB01      		movw r30,r22
 945               	.LSM93:
 946 0004 1496      		adiw r26,4
 947 0006 2D91      		ld r18,X+
 948 0008 3C91      		ld r19,X
 949 000a 1597      		sbiw r26,4+1
 950 000c 8481      		ldd r24,Z+4
 951 000e 9581      		ldd r25,Z+5
 952               	.LVL113:
 953 0010 2817      		cp r18,r24
 954 0012 3907      		cpc r19,r25
 955 0014 01F0      		breq .L88
 956               	.LVL114:
 957 0016 20E0      		ldi r18,lo8(0)
 958 0018 00C0      		rjmp .L89
 959               	.L88:
 960 001a 6081      		ld r22,Z
 961 001c 7181      		ldd r23,Z+1
 962 001e 8D91      		ld r24,X+
 963 0020 9C91      		ld r25,X
 964 0022 0E94 0000 		call strcmp
 965               	.LVL115:
 966 0026 20E0      		ldi r18,lo8(0)
 967 0028 892B      		or r24,r25
 968 002a 01F4      		brne .L89
 969 002c 21E0      		ldi r18,lo8(1)
 970               	.LVL116:
 971               	.L89:
 972               	.LSM94:
 973 002e 822F      		mov r24,r18
 974 0030 90E0      		ldi r25,lo8(0)
 975               	/* epilogue start */
 976 0032 0895      		ret
 977               	.LFE57:
 979               		.section	.text._ZNK6String9compareToERKS_,"ax",@progbits
 980               	.global	String::compareTo(String const&) const
 982               	String::compareTo(String const&) const:
 983               	.LFB53:
 984               	.LSM95:
 985               	.LVL117:
 986               	/* prologue: function */
 987               	/* frame size = 0 */
 988 0000 FC01      		movw r30,r24
 989 0002 DB01      		movw r26,r22
 990               	.LSM96:
 991 0004 6D91      		ld r22,X+
 992 0006 7C91      		ld r23,X
 993               	.LVL118:
 994 0008 8081      		ld r24,Z
 995 000a 9181      		ldd r25,Z+1
 996               	.LVL119:
 997 000c 0E94 0000 		call strcmp
 998               	.LVL120:
 999               	/* epilogue start */
 1000               	.LSM97:
 1001 0010 0895      		ret
 1002               	.LFE53:
 1004               		.section	.text._ZN6StringpLERKS_,"ax",@progbits
 1005               	.global	String::operator+=(String const&)
 1007               	String::operator+=(String const&):
 1008               	.LFB56:
 1009               	.LSM98:
 1010               	.LVL121:
 1011 0000 0F93      		push r16
 1012 0002 1F93      		push r17
 1013 0004 CF93      		push r28
 1014 0006 DF93      		push r29
 1015               	/* prologue: function */
 1016               	/* frame size = 0 */
 1017 0008 EC01      		movw r28,r24
 1018 000a 8B01      		movw r16,r22
 1019               	.LBB10:
 1020               	.LSM99:
 1021 000c FB01      		movw r30,r22
 1022 000e 6481      		ldd r22,Z+4
 1023 0010 7581      		ldd r23,Z+5
 1024               	.LVL122:
 1025 0012 8C81      		ldd r24,Y+4
 1026 0014 9D81      		ldd r25,Y+5
 1027               	.LVL123:
 1028 0016 680F      		add r22,r24
 1029 0018 791F      		adc r23,r25
 1030 001a 7D83      		std Y+5,r23
 1031 001c 6C83      		std Y+4,r22
 1032               	.LSM100:
 1033 001e 8A81      		ldd r24,Y+2
 1034 0020 9B81      		ldd r25,Y+3
 1035 0022 8617      		cp r24,r22
 1036 0024 9707      		cpc r25,r23
 1037 0026 00F4      		brsh .L95
 1038               	.LBB11:
 1039               	.LSM101:
 1040 0028 6F5F      		subi r22,lo8(-(1))
 1041 002a 7F4F      		sbci r23,hi8(-(1))
 1042 002c 8881      		ld r24,Y
 1043 002e 9981      		ldd r25,Y+1
 1044 0030 0E94 0000 		call realloc
 1045 0034 4C81      		ldd r20,Y+4
 1046 0036 5D81      		ldd r21,Y+5
 1047               	.LSM102:
 1048 0038 0097      		sbiw r24,0
 1049               	.LVL124:
 1050 003a 01F0      		breq .L96
 1051               	.LSM103:
 1052 003c 9983      		std Y+1,r25
 1053 003e 8883      		st Y,r24
 1054               	.LSM104:
 1055 0040 5B83      		std Y+3,r21
 1056 0042 4A83      		std Y+2,r20
 1057 0044 00C0      		rjmp .L95
 1058               	.L96:
 1059               	.LSM105:
 1060 0046 F801      		movw r30,r16
 1061 0048 8481      		ldd r24,Z+4
 1062 004a 9581      		ldd r25,Z+5
 1063               	.LVL125:
 1064 004c 481B      		sub r20,r24
 1065 004e 590B      		sbc r21,r25
 1066 0050 5D83      		std Y+5,r21
 1067 0052 4C83      		std Y+4,r20
 1068 0054 00C0      		rjmp .L97
 1069               	.LVL126:
 1070               	.L95:
 1071               	.LBE11:
 1072               	.LSM106:
 1073 0056 F801      		movw r30,r16
 1074 0058 6081      		ld r22,Z
 1075 005a 7181      		ldd r23,Z+1
 1076 005c 8881      		ld r24,Y
 1077 005e 9981      		ldd r25,Y+1
 1078               	.LVL127:
 1079 0060 0E94 0000 		call strcat
 1080               	.L97:
 1081               	.LBE10:
 1082               	.LSM107:
 1083 0064 CE01      		movw r24,r28
 1084               	.LVL128:
 1085               	/* epilogue start */
 1086 0066 DF91      		pop r29
 1087 0068 CF91      		pop r28
 1088 006a 1F91      		pop r17
 1089 006c 0F91      		pop r16
 1090               	.LVL129:
 1091 006e 0895      		ret
 1092               	.LFE56:
 1094               		.section	.text._ZN6String6concatERKS_,"ax",@progbits
 1095               	.global	String::concat(String const&)
 1097               	String::concat(String const&):
 1098               	.LFB54:
 1099               	.LSM108:
 1100               	.LVL130:
 1101               	/* prologue: function */
 1102               	/* frame size = 0 */
 1103               	.LSM109:
 1104 0000 0E94 0000 		call String::operator+=(String const&)
 1105               	.LVL131:
 1106               	/* epilogue start */
 1107               	.LSM110:
 1108 0004 0895      		ret
 1109               	.LFE54:
 1111               		.section	.text._ZN6String9getBufferEj,"ax",@progbits
 1112               		.weak	String::getBuffer(unsigned int)
 1114               	String::getBuffer(unsigned int):
 1115               	.LFB24:
 1116               	.LSM111:
 1117               	.LVL132:
 1118 0000 CF93      		push r28
 1119 0002 DF93      		push r29
 1120               	/* prologue: function */
 1121               	/* frame size = 0 */
 1122 0004 EC01      		movw r28,r24
 1123 0006 CB01      		movw r24,r22
 1124               	.LVL133:
 1125               	.LSM112:
 1126 0008 7B83      		std Y+3,r23
 1127 000a 6A83      		std Y+2,r22
 1128               	.LSM113:
 1129 000c 0196      		adiw r24,1
 1130 000e 0E94 0000 		call malloc
 1131               	.LVL134:
 1132 0012 9983      		std Y+1,r25
 1133 0014 8883      		st Y,r24
 1134               	.LSM114:
 1135 0016 0097      		sbiw r24,0
 1136 0018 01F4      		brne .L103
 1137 001a 1B82      		std Y+3,__zero_reg__
 1138 001c 1A82      		std Y+2,__zero_reg__
 1139 001e 1D82      		std Y+5,__zero_reg__
 1140 0020 1C82      		std Y+4,__zero_reg__
 1141               	.L103:
 1142               	/* epilogue start */
 1143               	.LSM115:
 1144 0022 DF91      		pop r29
 1145 0024 CF91      		pop r28
 1146               	.LVL135:
 1147 0026 0895      		ret
 1148               	.LFE24:
 1150               		.section	.text._ZN6StringaSERKS_,"ax",@progbits
 1151               	.global	String::operator=(String const&)
 1153               	String::operator=(String const&):
 1154               	.LFB55:
 1155               	.LSM116:
 1156               	.LVL136:
 1157 0000 0F93      		push r16
 1158 0002 1F93      		push r17
 1159 0004 CF93      		push r28
 1160 0006 DF93      		push r29
 1161               	/* prologue: function */
 1162               	/* frame size = 0 */
 1163 0008 EC01      		movw r28,r24
 1164 000a 8B01      		movw r16,r22
 1165               	.LSM117:
 1166 000c 8617      		cp r24,r22
 1167 000e 9707      		cpc r25,r23
 1168 0010 01F0      		breq .L105
 1169               	.LSM118:
 1170 0012 FB01      		movw r30,r22
 1171 0014 2481      		ldd r18,Z+4
 1172 0016 3581      		ldd r19,Z+5
 1173 0018 8C81      		ldd r24,Y+4
 1174 001a 9D81      		ldd r25,Y+5
 1175               	.LVL137:
 1176 001c 8217      		cp r24,r18
 1177 001e 9307      		cpc r25,r19
 1178 0020 00F4      		brsh .L106
 1179               	.LSM119:
 1180 0022 8881      		ld r24,Y
 1181 0024 9981      		ldd r25,Y+1
 1182 0026 0E94 0000 		call free
 1183               	.LVL138:
 1184               	.LSM120:
 1185 002a F801      		movw r30,r16
 1186 002c 6481      		ldd r22,Z+4
 1187 002e 7581      		ldd r23,Z+5
 1188 0030 CE01      		movw r24,r28
 1189 0032 0E94 0000 		call String::getBuffer(unsigned int)
 1190               	.LVL139:
 1191               	.L106:
 1192               	.LSM121:
 1193 0036 2881      		ld r18,Y
 1194 0038 3981      		ldd r19,Y+1
 1195 003a 2115      		cp r18,__zero_reg__
 1196 003c 3105      		cpc r19,__zero_reg__
 1197 003e 01F0      		breq .L105
 1198               	.LSM122:
 1199 0040 F801      		movw r30,r16
 1200 0042 8481      		ldd r24,Z+4
 1201 0044 9581      		ldd r25,Z+5
 1202 0046 9D83      		std Y+5,r25
 1203 0048 8C83      		std Y+4,r24
 1204               	.LSM123:
 1205 004a 6081      		ld r22,Z
 1206 004c 7181      		ldd r23,Z+1
 1207 004e C901      		movw r24,r18
 1208 0050 0E94 0000 		call strcpy
 1209               	.LVL140:
 1210               	.L105:
 1211               	.LSM124:
 1212 0054 CE01      		movw r24,r28
 1213               	.LVL141:
 1214               	/* epilogue start */
 1215 0056 DF91      		pop r29
 1216 0058 CF91      		pop r28
 1217 005a 1F91      		pop r17
 1218 005c 0F91      		pop r16
 1219               	.LVL142:
 1220 005e 0895      		ret
 1221               	.LFE55:
 1223               		.section	.text._ZN6StringC1Eh,"ax",@progbits
 1224               	.global	String::String(unsigned char)
 1226               	String::String(unsigned char):
 1227               	.LFB38:
 1228               	.LSM125:
 1229               	.LVL143:
 1230 0000 1F93      		push r17
 1231 0002 CF93      		push r28
 1232 0004 DF93      		push r29
 1233               	/* prologue: function */
 1234               	/* frame size = 0 */
 1235 0006 EC01      		movw r28,r24
 1236 0008 162F      		mov r17,r22
 1237               	.LBB12:
 1238               	.LSM126:
 1239 000a 81E0      		ldi r24,lo8(1)
 1240 000c 90E0      		ldi r25,hi8(1)
 1241               	.LVL144:
 1242 000e 9D83      		std Y+5,r25
 1243 0010 8C83      		std Y+4,r24
 1244               	.LSM127:
 1245 0012 CE01      		movw r24,r28
 1246 0014 61E0      		ldi r22,lo8(1)
 1247 0016 70E0      		ldi r23,hi8(1)
 1248               	.LVL145:
 1249 0018 0E94 0000 		call String::getBuffer(unsigned int)
 1250               	.LSM128:
 1251 001c E881      		ld r30,Y
 1252 001e F981      		ldd r31,Y+1
 1253 0020 3097      		sbiw r30,0
 1254 0022 01F0      		breq .L110
 1255               	.LSM129:
 1256 0024 1083      		st Z,r17
 1257               	.LSM130:
 1258 0026 E881      		ld r30,Y
 1259 0028 F981      		ldd r31,Y+1
 1260 002a 1182      		std Z+1,__zero_reg__
 1261               	.L110:
 1262               	/* epilogue start */
 1263               	.LBE12:
 1264               	.LSM131:
 1265 002c DF91      		pop r29
 1266 002e CF91      		pop r28
 1267               	.LVL146:
 1268 0030 1F91      		pop r17
 1269               	.LVL147:
 1270 0032 0895      		ret
 1271               	.LFE38:
 1273               		.section	.text._ZN6StringC2Eh,"ax",@progbits
 1274               	.global	String::String(unsigned char)
 1276               	String::String(unsigned char):
 1277               	.LFB37:
 1278               	.LSM132:
 1279               	.LVL148:
 1280 0000 1F93      		push r17
 1281 0002 CF93      		push r28
 1282 0004 DF93      		push r29
 1283               	/* prologue: function */
 1284               	/* frame size = 0 */
 1285 0006 EC01      		movw r28,r24
 1286 0008 162F      		mov r17,r22
 1287               	.LBB13:
 1288               	.LSM133:
 1289 000a 81E0      		ldi r24,lo8(1)
 1290 000c 90E0      		ldi r25,hi8(1)
 1291               	.LVL149:
 1292 000e 9D83      		std Y+5,r25
 1293 0010 8C83      		std Y+4,r24
 1294               	.LSM134:
 1295 0012 CE01      		movw r24,r28
 1296 0014 61E0      		ldi r22,lo8(1)
 1297 0016 70E0      		ldi r23,hi8(1)
 1298               	.LVL150:
 1299 0018 0E94 0000 		call String::getBuffer(unsigned int)
 1300               	.LSM135:
 1301 001c E881      		ld r30,Y
 1302 001e F981      		ldd r31,Y+1
 1303 0020 3097      		sbiw r30,0
 1304 0022 01F0      		breq .L113
 1305               	.LSM136:
 1306 0024 1083      		st Z,r17
 1307               	.LSM137:
 1308 0026 E881      		ld r30,Y
 1309 0028 F981      		ldd r31,Y+1
 1310 002a 1182      		std Z+1,__zero_reg__
 1311               	.L113:
 1312               	/* epilogue start */
 1313               	.LBE13:
 1314               	.LSM138:
 1315 002c DF91      		pop r29
 1316 002e CF91      		pop r28
 1317               	.LVL151:
 1318 0030 1F91      		pop r17
 1319               	.LVL152:
 1320 0032 0895      		ret
 1321               	.LFE37:
 1323               		.section	.text._ZN6StringC1Ec,"ax",@progbits
 1324               	.global	String::String(char)
 1326               	String::String(char):
 1327               	.LFB35:
 1328               	.LSM139:
 1329               	.LVL153:
 1330 0000 1F93      		push r17
 1331 0002 CF93      		push r28
 1332 0004 DF93      		push r29
 1333               	/* prologue: function */
 1334               	/* frame size = 0 */
 1335 0006 EC01      		movw r28,r24
 1336 0008 162F      		mov r17,r22
 1337               	.LBB14:
 1338               	.LSM140:
 1339 000a 81E0      		ldi r24,lo8(1)
 1340 000c 90E0      		ldi r25,hi8(1)
 1341               	.LVL154:
 1342 000e 9D83      		std Y+5,r25
 1343 0010 8C83      		std Y+4,r24
 1344               	.LSM141:
 1345 0012 CE01      		movw r24,r28
 1346 0014 61E0      		ldi r22,lo8(1)
 1347 0016 70E0      		ldi r23,hi8(1)
 1348               	.LVL155:
 1349 0018 0E94 0000 		call String::getBuffer(unsigned int)
 1350               	.LSM142:
 1351 001c E881      		ld r30,Y
 1352 001e F981      		ldd r31,Y+1
 1353 0020 3097      		sbiw r30,0
 1354 0022 01F0      		breq .L116
 1355               	.LSM143:
 1356 0024 1083      		st Z,r17
 1357               	.LSM144:
 1358 0026 E881      		ld r30,Y
 1359 0028 F981      		ldd r31,Y+1
 1360 002a 1182      		std Z+1,__zero_reg__
 1361               	.L116:
 1362               	/* epilogue start */
 1363               	.LBE14:
 1364               	.LSM145:
 1365 002c DF91      		pop r29
 1366 002e CF91      		pop r28
 1367               	.LVL156:
 1368 0030 1F91      		pop r17
 1369               	.LVL157:
 1370 0032 0895      		ret
 1371               	.LFE35:
 1373               		.section	.text._ZN6StringC2Ec,"ax",@progbits
 1374               	.global	String::String(char)
 1376               	String::String(char):
 1377               	.LFB34:
 1378               	.LSM146:
 1379               	.LVL158:
 1380 0000 1F93      		push r17
 1381 0002 CF93      		push r28
 1382 0004 DF93      		push r29
 1383               	/* prologue: function */
 1384               	/* frame size = 0 */
 1385 0006 EC01      		movw r28,r24
 1386 0008 162F      		mov r17,r22
 1387               	.LBB15:
 1388               	.LSM147:
 1389 000a 81E0      		ldi r24,lo8(1)
 1390 000c 90E0      		ldi r25,hi8(1)
 1391               	.LVL159:
 1392 000e 9D83      		std Y+5,r25
 1393 0010 8C83      		std Y+4,r24
 1394               	.LSM148:
 1395 0012 CE01      		movw r24,r28
 1396 0014 61E0      		ldi r22,lo8(1)
 1397 0016 70E0      		ldi r23,hi8(1)
 1398               	.LVL160:
 1399 0018 0E94 0000 		call String::getBuffer(unsigned int)
 1400               	.LSM149:
 1401 001c E881      		ld r30,Y
 1402 001e F981      		ldd r31,Y+1
 1403 0020 3097      		sbiw r30,0
 1404 0022 01F0      		breq .L119
 1405               	.LSM150:
 1406 0024 1083      		st Z,r17
 1407               	.LSM151:
 1408 0026 E881      		ld r30,Y
 1409 0028 F981      		ldd r31,Y+1
 1410 002a 1182      		std Z+1,__zero_reg__
 1411               	.L119:
 1412               	/* epilogue start */
 1413               	.LBE15:
 1414               	.LSM152:
 1415 002c DF91      		pop r29
 1416 002e CF91      		pop r28
 1417               	.LVL161:
 1418 0030 1F91      		pop r17
 1419               	.LVL162:
 1420 0032 0895      		ret
 1421               	.LFE34:
 1423               		.section	.text._ZN6StringC1ERKS_,"ax",@progbits
 1424               	.global	String::String(String const&)
 1426               	String::String(String const&):
 1427               	.LFB32:
 1428               	.LSM153:
 1429               	.LVL163:
 1430 0000 0F93      		push r16
 1431 0002 1F93      		push r17
 1432 0004 CF93      		push r28
 1433 0006 DF93      		push r29
 1434               	/* prologue: function */
 1435               	/* frame size = 0 */
 1436 0008 8C01      		movw r16,r24
 1437 000a EB01      		movw r28,r22
 1438               	.LBB16:
 1439               	.LSM154:
 1440 000c 6C81      		ldd r22,Y+4
 1441 000e 7D81      		ldd r23,Y+5
 1442               	.LVL164:
 1443 0010 FC01      		movw r30,r24
 1444 0012 7583      		std Z+5,r23
 1445 0014 6483      		std Z+4,r22
 1446 0016 0E94 0000 		call String::getBuffer(unsigned int)
 1447               	.LVL165:
 1448               	.LSM155:
 1449 001a F801      		movw r30,r16
 1450 001c 8081      		ld r24,Z
 1451 001e 9181      		ldd r25,Z+1
 1452 0020 0097      		sbiw r24,0
 1453 0022 01F0      		breq .L122
 1454               	.LSM156:
 1455 0024 6881      		ld r22,Y
 1456 0026 7981      		ldd r23,Y+1
 1457 0028 0E94 0000 		call strcpy
 1458               	.L122:
 1459               	/* epilogue start */
 1460               	.LBE16:
 1461               	.LSM157:
 1462 002c DF91      		pop r29
 1463 002e CF91      		pop r28
 1464               	.LVL166:
 1465 0030 1F91      		pop r17
 1466 0032 0F91      		pop r16
 1467               	.LVL167:
 1468 0034 0895      		ret
 1469               	.LFE32:
 1471               		.section	.text._ZN6StringC2ERKS_,"ax",@progbits
 1472               	.global	String::String(String const&)
 1474               	String::String(String const&):
 1475               	.LFB31:
 1476               	.LSM158:
 1477               	.LVL168:
 1478 0000 0F93      		push r16
 1479 0002 1F93      		push r17
 1480 0004 CF93      		push r28
 1481 0006 DF93      		push r29
 1482               	/* prologue: function */
 1483               	/* frame size = 0 */
 1484 0008 8C01      		movw r16,r24
 1485 000a EB01      		movw r28,r22
 1486               	.LBB17:
 1487               	.LSM159:
 1488 000c 6C81      		ldd r22,Y+4
 1489 000e 7D81      		ldd r23,Y+5
 1490               	.LVL169:
 1491 0010 FC01      		movw r30,r24
 1492 0012 7583      		std Z+5,r23
 1493 0014 6483      		std Z+4,r22
 1494 0016 0E94 0000 		call String::getBuffer(unsigned int)
 1495               	.LVL170:
 1496               	.LSM160:
 1497 001a F801      		movw r30,r16
 1498 001c 8081      		ld r24,Z
 1499 001e 9181      		ldd r25,Z+1
 1500 0020 0097      		sbiw r24,0
 1501 0022 01F0      		breq .L125
 1502               	.LSM161:
 1503 0024 6881      		ld r22,Y
 1504 0026 7981      		ldd r23,Y+1
 1505 0028 0E94 0000 		call strcpy
 1506               	.L125:
 1507               	/* epilogue start */
 1508               	.LBE17:
 1509               	.LSM162:
 1510 002c DF91      		pop r29
 1511 002e CF91      		pop r28
 1512               	.LVL171:
 1513 0030 1F91      		pop r17
 1514 0032 0F91      		pop r16
 1515               	.LVL172:
 1516 0034 0895      		ret
 1517               	.LFE31:
 1519               		.section	.text._ZN6StringC1Emi,"ax",@progbits
 1520               	.global	String::String(unsigned long, int)
 1522               	String::String(unsigned long, int):
 1523               	.LFB50:
 1524               	.LSM163:
 1525               	.LVL173:
 1526 0000 A1E2      		ldi r26,lo8(33)
 1527 0002 B0E0      		ldi r27,hi8(33)
 1528 0004 E0E0      		ldi r30,lo8(gs(1f))
 1529 0006 F0E0      		ldi r31,hi8(gs(1f))
 1530 0008 0C94 0000 		jmp __prologue_saves__+((18 - 6) * 2)
 1531               	1:
 1532               	/* prologue: function */
 1533               	/* frame size = 33 */
 1534 000c 8C01      		movw r16,r24
 1535               	.LBB18:
 1536               	.LBB19:
 1537               	.LSM164:
 1538 000e CB01      		movw r24,r22
 1539 0010 BA01      		movw r22,r20
 1540 0012 7E01      		movw r14,r28
 1541 0014 0894      		sec
 1542 0016 E11C      		adc r14,__zero_reg__
 1543 0018 F11C      		adc r15,__zero_reg__
 1544 001a A701      		movw r20,r14
 1545               	.LVL174:
 1546 001c 2AE0      		ldi r18,lo8(10)
 1547 001e 30E0      		ldi r19,hi8(10)
 1548               	.LVL175:
 1549 0020 0E94 0000 		call ultoa
 1550               	.LVL176:
 1551               	.LSM165:
 1552 0024 C701      		movw r24,r14
 1553 0026 0E94 0000 		call strlen
 1554 002a BC01      		movw r22,r24
 1555 002c F801      		movw r30,r16
 1556 002e 9583      		std Z+5,r25
 1557 0030 8483      		std Z+4,r24
 1558 0032 C801      		movw r24,r16
 1559 0034 0E94 0000 		call String::getBuffer(unsigned int)
 1560               	.LSM166:
 1561 0038 F801      		movw r30,r16
 1562 003a 8081      		ld r24,Z
 1563 003c 9181      		ldd r25,Z+1
 1564 003e 0097      		sbiw r24,0
 1565 0040 01F0      		breq .L128
 1566               	.LSM167:
 1567 0042 B701      		movw r22,r14
 1568 0044 0E94 0000 		call strcpy
 1569               	.L128:
 1570               	/* epilogue start */
 1571               	.LBE19:
 1572               	.LBE18:
 1573               	.LSM168:
 1574 0048 A196      		adiw r28,33
 1575 004a E6E0      		ldi r30, lo8(6)
 1576 004c 0C94 0000 		jmp __epilogue_restores__ + ((18 - 6) * 2)
 1577               	.LFE50:
 1579               		.section	.text._ZN6StringC2Emi,"ax",@progbits
 1580               	.global	String::String(unsigned long, int)
 1582               	String::String(unsigned long, int):
 1583               	.LFB49:
 1584               	.LSM169:
 1585               	.LVL177:
 1586 0000 A1E2      		ldi r26,lo8(33)
 1587 0002 B0E0      		ldi r27,hi8(33)
 1588 0004 E0E0      		ldi r30,lo8(gs(1f))
 1589 0006 F0E0      		ldi r31,hi8(gs(1f))
 1590 0008 0C94 0000 		jmp __prologue_saves__+((18 - 6) * 2)
 1591               	1:
 1592               	/* prologue: function */
 1593               	/* frame size = 33 */
 1594 000c 8C01      		movw r16,r24
 1595               	.LBB20:
 1596               	.LBB21:
 1597               	.LSM170:
 1598 000e CB01      		movw r24,r22
 1599 0010 BA01      		movw r22,r20
 1600 0012 7E01      		movw r14,r28
 1601 0014 0894      		sec
 1602 0016 E11C      		adc r14,__zero_reg__
 1603 0018 F11C      		adc r15,__zero_reg__
 1604 001a A701      		movw r20,r14
 1605               	.LVL178:
 1606 001c 2AE0      		ldi r18,lo8(10)
 1607 001e 30E0      		ldi r19,hi8(10)
 1608               	.LVL179:
 1609 0020 0E94 0000 		call ultoa
 1610               	.LVL180:
 1611               	.LSM171:
 1612 0024 C701      		movw r24,r14
 1613 0026 0E94 0000 		call strlen
 1614 002a BC01      		movw r22,r24
 1615 002c F801      		movw r30,r16
 1616 002e 9583      		std Z+5,r25
 1617 0030 8483      		std Z+4,r24
 1618 0032 C801      		movw r24,r16
 1619 0034 0E94 0000 		call String::getBuffer(unsigned int)
 1620               	.LSM172:
 1621 0038 F801      		movw r30,r16
 1622 003a 8081      		ld r24,Z
 1623 003c 9181      		ldd r25,Z+1
 1624 003e 0097      		sbiw r24,0
 1625 0040 01F0      		breq .L131
 1626               	.LSM173:
 1627 0042 B701      		movw r22,r14
 1628 0044 0E94 0000 		call strcpy
 1629               	.L131:
 1630               	/* epilogue start */
 1631               	.LBE21:
 1632               	.LBE20:
 1633               	.LSM174:
 1634 0048 A196      		adiw r28,33
 1635 004a E6E0      		ldi r30, lo8(6)
 1636 004c 0C94 0000 		jmp __epilogue_restores__ + ((18 - 6) * 2)
 1637               	.LFE49:
 1639               		.section	.text._ZN6StringC1Eji,"ax",@progbits
 1640               	.global	String::String(unsigned int, int)
 1642               	String::String(unsigned int, int):
 1643               	.LFB44:
 1644               	.LSM175:
 1645               	.LVL181:
 1646 0000 A1E2      		ldi r26,lo8(33)
 1647 0002 B0E0      		ldi r27,hi8(33)
 1648 0004 E0E0      		ldi r30,lo8(gs(1f))
 1649 0006 F0E0      		ldi r31,hi8(gs(1f))
 1650 0008 0C94 0000 		jmp __prologue_saves__+((18 - 6) * 2)
 1651               	1:
 1652               	/* prologue: function */
 1653               	/* frame size = 33 */
 1654 000c 8C01      		movw r16,r24
 1655 000e 9A01      		movw r18,r20
 1656               	.LBB22:
 1657               	.LBB23:
 1658               	.LSM176:
 1659 0010 80E0      		ldi r24,lo8(0)
 1660 0012 90E0      		ldi r25,hi8(0)
 1661               	.LVL182:
 1662 0014 7E01      		movw r14,r28
 1663 0016 0894      		sec
 1664 0018 E11C      		adc r14,__zero_reg__
 1665 001a F11C      		adc r15,__zero_reg__
 1666 001c A701      		movw r20,r14
 1667               	.LVL183:
 1668 001e 0E94 0000 		call ultoa
 1669               	.LVL184:
 1670               	.LSM177:
 1671 0022 C701      		movw r24,r14
 1672 0024 0E94 0000 		call strlen
 1673 0028 BC01      		movw r22,r24
 1674 002a F801      		movw r30,r16
 1675 002c 9583      		std Z+5,r25
 1676 002e 8483      		std Z+4,r24
 1677 0030 C801      		movw r24,r16
 1678 0032 0E94 0000 		call String::getBuffer(unsigned int)
 1679               	.LSM178:
 1680 0036 F801      		movw r30,r16
 1681 0038 8081      		ld r24,Z
 1682 003a 9181      		ldd r25,Z+1
 1683 003c 0097      		sbiw r24,0
 1684 003e 01F0      		breq .L134
 1685               	.LSM179:
 1686 0040 B701      		movw r22,r14
 1687 0042 0E94 0000 		call strcpy
 1688               	.L134:
 1689               	/* epilogue start */
 1690               	.LBE23:
 1691               	.LBE22:
 1692               	.LSM180:
 1693 0046 A196      		adiw r28,33
 1694 0048 E6E0      		ldi r30, lo8(6)
 1695 004a 0C94 0000 		jmp __epilogue_restores__ + ((18 - 6) * 2)
 1696               	.LFE44:
 1698               		.section	.text._ZN6StringC2Eji,"ax",@progbits
 1699               	.global	String::String(unsigned int, int)
 1701               	String::String(unsigned int, int):
 1702               	.LFB43:
 1703               	.LSM181:
 1704               	.LVL185:
 1705 0000 A1E2      		ldi r26,lo8(33)
 1706 0002 B0E0      		ldi r27,hi8(33)
 1707 0004 E0E0      		ldi r30,lo8(gs(1f))
 1708 0006 F0E0      		ldi r31,hi8(gs(1f))
 1709 0008 0C94 0000 		jmp __prologue_saves__+((18 - 6) * 2)
 1710               	1:
 1711               	/* prologue: function */
 1712               	/* frame size = 33 */
 1713 000c 8C01      		movw r16,r24
 1714 000e 9A01      		movw r18,r20
 1715               	.LBB24:
 1716               	.LBB25:
 1717               	.LSM182:
 1718 0010 80E0      		ldi r24,lo8(0)
 1719 0012 90E0      		ldi r25,hi8(0)
 1720               	.LVL186:
 1721 0014 7E01      		movw r14,r28
 1722 0016 0894      		sec
 1723 0018 E11C      		adc r14,__zero_reg__
 1724 001a F11C      		adc r15,__zero_reg__
 1725 001c A701      		movw r20,r14
 1726               	.LVL187:
 1727 001e 0E94 0000 		call ultoa
 1728               	.LVL188:
 1729               	.LSM183:
 1730 0022 C701      		movw r24,r14
 1731 0024 0E94 0000 		call strlen
 1732 0028 BC01      		movw r22,r24
 1733 002a F801      		movw r30,r16
 1734 002c 9583      		std Z+5,r25
 1735 002e 8483      		std Z+4,r24
 1736 0030 C801      		movw r24,r16
 1737 0032 0E94 0000 		call String::getBuffer(unsigned int)
 1738               	.LSM184:
 1739 0036 F801      		movw r30,r16
 1740 0038 8081      		ld r24,Z
 1741 003a 9181      		ldd r25,Z+1
 1742 003c 0097      		sbiw r24,0
 1743 003e 01F0      		breq .L137
 1744               	.LSM185:
 1745 0040 B701      		movw r22,r14
 1746 0042 0E94 0000 		call strcpy
 1747               	.L137:
 1748               	/* epilogue start */
 1749               	.LBE25:
 1750               	.LBE24:
 1751               	.LSM186:
 1752 0046 A196      		adiw r28,33
 1753 0048 E6E0      		ldi r30, lo8(6)
 1754 004a 0C94 0000 		jmp __epilogue_restores__ + ((18 - 6) * 2)
 1755               	.LFE43:
 1757               		.data
 1758               	.LC0:
 1759 0000 00        		.string	""
 1760               		.section	.text._ZN6StringC1EPKc,"ax",@progbits
 1761               	.global	String::String(char const*)
 1763               	String::String(char const*):
 1764               	.LFB29:
 1765               	.LSM187:
 1766               	.LVL189:
 1767 0000 0F93      		push r16
 1768 0002 1F93      		push r17
 1769 0004 CF93      		push r28
 1770 0006 DF93      		push r29
 1771               	/* prologue: function */
 1772               	/* frame size = 0 */
 1773 0008 8C01      		movw r16,r24
 1774 000a EB01      		movw r28,r22
 1775               	.LBB26:
 1776               	.LSM188:
 1777 000c 6115      		cp r22,__zero_reg__
 1778 000e 7105      		cpc r23,__zero_reg__
 1779 0010 01F4      		brne .L139
 1780               	.LVL190:
 1781 0012 C0E0      		ldi r28,lo8(.LC0)
 1782 0014 D0E0      		ldi r29,hi8(.LC0)
 1783               	.LVL191:
 1784               	.L139:
 1785               	.LSM189:
 1786 0016 CE01      		movw r24,r28
 1787 0018 0E94 0000 		call strlen
 1788 001c BC01      		movw r22,r24
 1789 001e F801      		movw r30,r16
 1790 0020 9583      		std Z+5,r25
 1791 0022 8483      		std Z+4,r24
 1792 0024 C801      		movw r24,r16
 1793 0026 0E94 0000 		call String::getBuffer(unsigned int)
 1794               	.LSM190:
 1795 002a F801      		movw r30,r16
 1796 002c 8081      		ld r24,Z
 1797 002e 9181      		ldd r25,Z+1
 1798 0030 0097      		sbiw r24,0
 1799 0032 01F0      		breq .L141
 1800               	.LSM191:
 1801 0034 BE01      		movw r22,r28
 1802 0036 0E94 0000 		call strcpy
 1803               	.L141:
 1804               	/* epilogue start */
 1805               	.LBE26:
 1806               	.LSM192:
 1807 003a DF91      		pop r29
 1808 003c CF91      		pop r28
 1809               	.LVL192:
 1810 003e 1F91      		pop r17
 1811 0040 0F91      		pop r16
 1812               	.LVL193:
 1813 0042 0895      		ret
 1814               	.LFE29:
 1816               		.section	.text._ZNK6String11toUpperCaseEv,"ax",@progbits
 1817               	.global	String::toUpperCase() const
 1819               	String::toUpperCase() const:
 1820               	.LFB83:
 1821               	.LSM193:
 1822               	.LVL194:
 1823 0000 A0E0      		ldi r26,lo8(0)
 1824 0002 B0E0      		ldi r27,hi8(0)
 1825 0004 E0E0      		ldi r30,lo8(gs(1f))
 1826 0006 F0E0      		ldi r31,hi8(gs(1f))
 1827 0008 0C94 0000 		jmp __prologue_saves__+((18 - 10) * 2)
 1828               	1:
 1829               	/* prologue: function */
 1830               	/* frame size = 0 */
 1831 000c B82E      		mov r11,r24
 1832 000e A92E      		mov r10,r25
 1833 0010 6B01      		movw r12,r22
 1834               	.LBB27:
 1835               	.LSM194:
 1836 0012 C82F      		mov r28,r24
 1837 0014 D92F      		mov r29,r25
 1838 0016 FB01      		movw r30,r22
 1839 0018 6081      		ld r22,Z
 1840 001a 7181      		ldd r23,Z+1
 1841               	.LVL195:
 1842 001c CE01      		movw r24,r28
 1843 001e 0E94 0000 		call String::String(char const*)
 1844 0022 EE24      		clr r14
 1845 0024 FF24      		clr r15
 1846               	.LVL196:
 1847 0026 00C0      		rjmp .L143
 1848               	.L144:
 1849               	.LBB28:
 1850               	.LSM195:
 1851 0028 0881      		ld r16,Y
 1852 002a 1981      		ldd r17,Y+1
 1853 002c 0E0D      		add r16,r14
 1854 002e 1F1D      		adc r17,r15
 1855 0030 F801      		movw r30,r16
 1856 0032 8081      		ld r24,Z
 1857 0034 90E0      		ldi r25,lo8(0)
 1858 0036 0E94 0000 		call toupper
 1859 003a F801      		movw r30,r16
 1860 003c 8083      		st Z,r24
 1861               	.LSM196:
 1862 003e 0894      		sec
 1863 0040 E11C      		adc r14,__zero_reg__
 1864 0042 F11C      		adc r15,__zero_reg__
 1865               	.L143:
 1866 0044 F601      		movw r30,r12
 1867 0046 8481      		ldd r24,Z+4
 1868 0048 9581      		ldd r25,Z+5
 1869 004a E816      		cp r14,r24
 1870 004c F906      		cpc r15,r25
 1871 004e 00F0      		brlo .L144
 1872               	.LBE28:
 1873               	.LBE27:
 1874               	.LSM197:
 1875 0050 8B2D      		mov r24,r11
 1876 0052 9A2D      		mov r25,r10
 1877               	/* epilogue start */
 1878 0054 CDB7      		in r28,__SP_L__
 1879 0056 DEB7      		in r29,__SP_H__
 1880 0058 EAE0      		ldi r30, lo8(10)
 1881 005a 0C94 0000 		jmp __epilogue_restores__ + ((18 - 10) * 2)
 1882               	.LFE83:
 1884               		.section	.text._ZNK6String11toLowerCaseEv,"ax",@progbits
 1885               	.global	String::toLowerCase() const
 1887               	String::toLowerCase() const:
 1888               	.LFB82:
 1889               	.LSM198:
 1890               	.LVL197:
 1891 0000 A0E0      		ldi r26,lo8(0)
 1892 0002 B0E0      		ldi r27,hi8(0)
 1893 0004 E0E0      		ldi r30,lo8(gs(1f))
 1894 0006 F0E0      		ldi r31,hi8(gs(1f))
 1895 0008 0C94 0000 		jmp __prologue_saves__+((18 - 10) * 2)
 1896               	1:
 1897               	/* prologue: function */
 1898               	/* frame size = 0 */
 1899 000c B82E      		mov r11,r24
 1900 000e A92E      		mov r10,r25
 1901 0010 6B01      		movw r12,r22
 1902               	.LBB29:
 1903               	.LSM199:
 1904 0012 C82F      		mov r28,r24
 1905 0014 D92F      		mov r29,r25
 1906 0016 FB01      		movw r30,r22
 1907 0018 6081      		ld r22,Z
 1908 001a 7181      		ldd r23,Z+1
 1909               	.LVL198:
 1910 001c CE01      		movw r24,r28
 1911 001e 0E94 0000 		call String::String(char const*)
 1912 0022 EE24      		clr r14
 1913 0024 FF24      		clr r15
 1914               	.LVL199:
 1915 0026 00C0      		rjmp .L147
 1916               	.L148:
 1917               	.LBB30:
 1918               	.LSM200:
 1919 0028 0881      		ld r16,Y
 1920 002a 1981      		ldd r17,Y+1
 1921 002c 0E0D      		add r16,r14
 1922 002e 1F1D      		adc r17,r15
 1923 0030 F801      		movw r30,r16
 1924 0032 8081      		ld r24,Z
 1925 0034 90E0      		ldi r25,lo8(0)
 1926 0036 0E94 0000 		call tolower
 1927 003a F801      		movw r30,r16
 1928 003c 8083      		st Z,r24
 1929               	.LSM201:
 1930 003e 0894      		sec
 1931 0040 E11C      		adc r14,__zero_reg__
 1932 0042 F11C      		adc r15,__zero_reg__
 1933               	.L147:
 1934 0044 F601      		movw r30,r12
 1935 0046 8481      		ldd r24,Z+4
 1936 0048 9581      		ldd r25,Z+5
 1937 004a E816      		cp r14,r24
 1938 004c F906      		cpc r15,r25
 1939 004e 00F0      		brlo .L148
 1940               	.LBE30:
 1941               	.LBE29:
 1942               	.LSM202:
 1943 0050 8B2D      		mov r24,r11
 1944 0052 9A2D      		mov r25,r10
 1945               	/* epilogue start */
 1946 0054 CDB7      		in r28,__SP_L__
 1947 0056 DEB7      		in r29,__SP_H__
 1948 0058 EAE0      		ldi r30, lo8(10)
 1949 005a 0C94 0000 		jmp __epilogue_restores__ + ((18 - 10) * 2)
 1950               	.LFE82:
 1952               		.section	.text._ZNK6String16equalsIgnoreCaseERKS_,"ax",@progbits
 1953               	.global	String::equalsIgnoreCase(String const&) const
 1955               	String::equalsIgnoreCase(String const&) const:
 1956               	.LFB67:
 1957               	.LSM203:
 1958               	.LVL200:
 1959 0000 ACE0      		ldi r26,lo8(12)
 1960 0002 B0E0      		ldi r27,hi8(12)
 1961 0004 E0E0      		ldi r30,lo8(gs(1f))
 1962 0006 F0E0      		ldi r31,hi8(gs(1f))
 1963 0008 0C94 0000 		jmp __prologue_saves__+((18 - 6) * 2)
 1964               	1:
 1965               	/* prologue: function */
 1966               	/* frame size = 12 */
 1967 000c FC01      		movw r30,r24
 1968 000e 7B01      		movw r14,r22
 1969               	.LSM204:
 1970 0010 8617      		cp r24,r22
 1971 0012 9707      		cpc r25,r23
 1972 0014 01F4      		brne .L151
 1973 0016 01E0      		ldi r16,lo8(1)
 1974 0018 00C0      		rjmp .L152
 1975               	.L151:
 1976               	.LSM205:
 1977 001a 2481      		ldd r18,Z+4
 1978 001c 3581      		ldd r19,Z+5
 1979 001e DB01      		movw r26,r22
 1980 0020 1496      		adiw r26,4
 1981 0022 8D91      		ld r24,X+
 1982 0024 9C91      		ld r25,X
 1983 0026 1597      		sbiw r26,4+1
 1984               	.LVL201:
 1985 0028 2817      		cp r18,r24
 1986 002a 3907      		cpc r19,r25
 1987 002c 01F0      		breq .L153
 1988 002e 00E0      		ldi r16,lo8(0)
 1989 0030 00C0      		rjmp .L152
 1990               	.L153:
 1991               	.LSM206:
 1992 0032 CE01      		movw r24,r28
 1993 0034 0196      		adiw r24,1
 1994 0036 BF01      		movw r22,r30
 1995               	.LVL202:
 1996 0038 0E94 0000 		call String::toLowerCase() const
 1997               	.LVL203:
 1998 003c 0981      		ldd r16,Y+1
 1999 003e 1A81      		ldd r17,Y+2
 2000 0040 CE01      		movw r24,r28
 2001 0042 0796      		adiw r24,7
 2002 0044 B701      		movw r22,r14
 2003 0046 0E94 0000 		call String::toLowerCase() const
 2004 004a 6F81      		ldd r22,Y+7
 2005 004c 7885      		ldd r23,Y+8
 2006 004e C801      		movw r24,r16
 2007 0050 0E94 0000 		call strcmp
 2008 0054 00E0      		ldi r16,lo8(0)
 2009 0056 892B      		or r24,r25
 2010 0058 01F4      		brne .L154
 2011 005a 01E0      		ldi r16,lo8(1)
 2012               	.L154:
 2013 005c CE01      		movw r24,r28
 2014 005e 0796      		adiw r24,7
 2015 0060 0E94 0000 		call String::~String()
 2016 0064 CE01      		movw r24,r28
 2017 0066 0196      		adiw r24,1
 2018 0068 0E94 0000 		call String::~String()
 2019               	.LVL204:
 2020               	.L152:
 2021               	.LSM207:
 2022 006c 802F      		mov r24,r16
 2023               	/* epilogue start */
 2024 006e 2C96      		adiw r28,12
 2025 0070 E6E0      		ldi r30, lo8(6)
 2026 0072 0C94 0000 		jmp __epilogue_restores__ + ((18 - 6) * 2)
 2027               	.LVL205:
 2028               	.LFE67:
 2030               		.section	.text._ZNK6String9substringEjj,"ax",@progbits
 2031               	.global	String::substring(unsigned int, unsigned int) const
 2033               	String::substring(unsigned int, unsigned int) const:
 2034               	.LFB81:
 2035               	.LSM208:
 2036               	.LVL206:
 2037 0000 CF92      		push r12
 2038 0002 DF92      		push r13
 2039 0004 EF92      		push r14
 2040 0006 FF92      		push r15
 2041 0008 1F93      		push r17
 2042 000a CF93      		push r28
 2043 000c DF93      		push r29
 2044               	/* prologue: function */
 2045               	/* frame size = 0 */
 2046 000e 6C01      		movw r12,r24
 2047 0010 7B01      		movw r14,r22
 2048 0012 B901      		movw r22,r18
 2049               	.LVL207:
 2050               	.LBB31:
 2051               	.LSM209:
 2052 0014 2417      		cp r18,r20
 2053 0016 3507      		cpc r19,r21
 2054 0018 00F4      		brsh .L157
 2055 001a BA01      		movw r22,r20
 2056               	.LVL208:
 2057 001c A901      		movw r20,r18
 2058               	.LVL209:
 2059               	.L157:
 2060 001e D701      		movw r26,r14
 2061 0020 1496      		adiw r26,4
 2062 0022 8D91      		ld r24,X+
 2063 0024 9C91      		ld r25,X
 2064 0026 1597      		sbiw r26,4+1
 2065 0028 EB01      		movw r28,r22
 2066 002a 8617      		cp r24,r22
 2067 002c 9707      		cpc r25,r23
 2068 002e 00F4      		brsh .L158
 2069 0030 EC01      		movw r28,r24
 2070               	.LVL210:
 2071               	.L158:
 2072               	.LSM210:
 2073 0032 D701      		movw r26,r14
 2074 0034 ED91      		ld r30,X+
 2075 0036 FC91      		ld r31,X
 2076 0038 1197      		sbiw r26,1
 2077 003a EC0F      		add r30,r28
 2078 003c FD1F      		adc r31,r29
 2079 003e 1081      		ld r17,Z
 2080               	.LVL211:
 2081               	.LSM211:
 2082 0040 1082      		st Z,__zero_reg__
 2083               	.LSM212:
 2084 0042 6D91      		ld r22,X+
 2085 0044 7C91      		ld r23,X
 2086 0046 640F      		add r22,r20
 2087 0048 751F      		adc r23,r21
 2088 004a C601      		movw r24,r12
 2089 004c 0E94 0000 		call String::String(char const*)
 2090               	.LVL212:
 2091               	.LSM213:
 2092 0050 D701      		movw r26,r14
 2093 0052 ED91      		ld r30,X+
 2094 0054 FC91      		ld r31,X
 2095 0056 EC0F      		add r30,r28
 2096 0058 FD1F      		adc r31,r29
 2097 005a 1083      		st Z,r17
 2098               	.LBE31:
 2099               	.LSM214:
 2100 005c C601      		movw r24,r12
 2101               	/* epilogue start */
 2102 005e DF91      		pop r29
 2103 0060 CF91      		pop r28
 2104               	.LVL213:
 2105 0062 1F91      		pop r17
 2106               	.LVL214:
 2107 0064 FF90      		pop r15
 2108 0066 EF90      		pop r14
 2109               	.LVL215:
 2110 0068 DF90      		pop r13
 2111 006a CF90      		pop r12
 2112 006c 0895      		ret
 2113               	.LFE81:
 2115               		.section	.text._ZNK6String9substringEj,"ax",@progbits
 2116               	.global	String::substring(unsigned int) const
 2118               	String::substring(unsigned int) const:
 2119               	.LFB80:
 2120               	.LSM215:
 2121               	.LVL216:
 2122 0000 0F93      		push r16
 2123 0002 1F93      		push r17
 2124               	/* prologue: function */
 2125               	/* frame size = 0 */
 2126 0004 8C01      		movw r16,r24
 2127 0006 FB01      		movw r30,r22
 2128               	.LSM216:
 2129 0008 2481      		ldd r18,Z+4
 2130 000a 3581      		ldd r19,Z+5
 2131 000c 0E94 0000 		call String::substring(unsigned int, unsigned int) const
 2132               	.LVL217:
 2133               	.LSM217:
 2134 0010 C801      		movw r24,r16
 2135               	/* epilogue start */
 2136 0012 1F91      		pop r17
 2137 0014 0F91      		pop r16
 2138 0016 0895      		ret
 2139               	.LFE80:
 2141               		.section	.text._ZNK6String11lastIndexOfERKS_j,"ax",@progbits
 2142               	.global	String::lastIndexOf(String const&, unsigned int) const
 2144               	String::lastIndexOf(String const&, unsigned int) const:
 2145               	.LFB77:
 2146               	.LSM218:
 2147               	.LVL218:
 2148 0000 A6E0      		ldi r26,lo8(6)
 2149 0002 B0E0      		ldi r27,hi8(6)
 2150 0004 E0E0      		ldi r30,lo8(gs(1f))
 2151 0006 F0E0      		ldi r31,hi8(gs(1f))
 2152 0008 0C94 0000 		jmp __prologue_saves__+((18 - 12) * 2)
 2153               	1:
 2154               	/* prologue: function */
 2155               	/* frame size = 6 */
 2156 000c 5C01      		movw r10,r24
 2157 000e 6B01      		movw r12,r22
 2158 0010 7A01      		movw r14,r20
 2159               	.LBB32:
 2160               	.LSM219:
 2161 0012 DB01      		movw r26,r22
 2162 0014 1496      		adiw r26,4
 2163 0016 8D91      		ld r24,X+
 2164 0018 9C91      		ld r25,X
 2165 001a 1597      		sbiw r26,4+1
 2166               	.LVL219:
 2167 001c 0097      		sbiw r24,0
 2168 001e 01F0      		breq .L163
 2169               	.LVL220:
 2170 0020 0197      		sbiw r24,1
 2171 0022 4817      		cp r20,r24
 2172 0024 5907      		cpc r21,r25
 2173 0026 00F0      		brlo .L163
 2174               	.LVL221:
 2175 0028 F501      		movw r30,r10
 2176 002a 8481      		ldd r24,Z+4
 2177 002c 9581      		ldd r25,Z+5
 2178 002e 4817      		cp r20,r24
 2179 0030 5907      		cpc r21,r25
 2180 0032 00F4      		brsh .L163
 2181               	.LSM220:
 2182 0034 CB01      		movw r24,r22
 2183 0036 60E0      		ldi r22,lo8(0)
 2184 0038 70E0      		ldi r23,hi8(0)
 2185               	.LVL222:
 2186 003a 0E94 0000 		call String::operator[](unsigned int) const
 2187               	.LVL223:
 2188 003e 082F      		mov r16,r24
 2189               	.LVL224:
 2190               	.LBB33:
 2191               	.LSM221:
 2192 0040 4E01      		movw r8,r28
 2193 0042 0894      		sec
 2194 0044 811C      		adc r8,__zero_reg__
 2195 0046 911C      		adc r9,__zero_reg__
 2196 0048 00C0      		rjmp .L164
 2197               	.LVL225:
 2198               	.L167:
 2199 004a D501      		movw r26,r10
 2200 004c ED91      		ld r30,X+
 2201 004e FC91      		ld r31,X
 2202 0050 EE0D      		add r30,r14
 2203 0052 FF1D      		adc r31,r15
 2204 0054 8081      		ld r24,Z
 2205 0056 8017      		cp r24,r16
 2206 0058 01F4      		brne .L165
 2207 005a F601      		movw r30,r12
 2208 005c 2481      		ldd r18,Z+4
 2209 005e 3581      		ldd r19,Z+5
 2210 0060 2E0D      		add r18,r14
 2211 0062 3F1D      		adc r19,r15
 2212 0064 C401      		movw r24,r8
 2213 0066 B501      		movw r22,r10
 2214 0068 A701      		movw r20,r14
 2215 006a 0E94 0000 		call String::substring(unsigned int, unsigned int) const
 2216 006e C401      		movw r24,r8
 2217 0070 B601      		movw r22,r12
 2218 0072 0E94 0000 		call String::equals(String const&) const
 2219 0076 182F      		mov r17,r24
 2220 0078 C401      		movw r24,r8
 2221 007a 0E94 0000 		call String::~String()
 2222 007e 1123      		tst r17
 2223 0080 01F4      		brne .L166
 2224               	.L165:
 2225               	.LSM222:
 2226 0082 0894      		sec
 2227 0084 E108      		sbc r14,__zero_reg__
 2228 0086 F108      		sbc r15,__zero_reg__
 2229               	.LVL226:
 2230               	.L164:
 2231 0088 F7FE      		sbrs r15,7
 2232 008a 00C0      		rjmp .L167
 2233               	.LVL227:
 2234               	.L163:
 2235 008c EE24      		clr r14
 2236 008e EA94      		dec r14
 2237 0090 FE2C      		mov r15,r14
 2238               	.LVL228:
 2239               	.L166:
 2240               	.LBE33:
 2241               	.LBE32:
 2242               	.LSM223:
 2243 0092 C701      		movw r24,r14
 2244               	.LVL229:
 2245               	/* epilogue start */
 2246 0094 2696      		adiw r28,6
 2247 0096 ECE0      		ldi r30, lo8(12)
 2248 0098 0C94 0000 		jmp __epilogue_restores__ + ((18 - 12) * 2)
 2249               	.LFE77:
 2251               		.section	.text._ZNK6String11lastIndexOfERKS_,"ax",@progbits
 2252               	.global	String::lastIndexOf(String const&) const
 2254               	String::lastIndexOf(String const&) const:
 2255               	.LFB76:
 2256               	.LSM224:
 2257               	.LVL230:
 2258               	/* prologue: function */
 2259               	/* frame size = 0 */
 2260 0000 FC01      		movw r30,r24
 2261 0002 DB01      		movw r26,r22
 2262               	.LSM225:
 2263 0004 4481      		ldd r20,Z+4
 2264 0006 5581      		ldd r21,Z+5
 2265 0008 1496      		adiw r26,4
 2266 000a 8D91      		ld r24,X+
 2267 000c 9C91      		ld r25,X
 2268 000e 1597      		sbiw r26,4+1
 2269               	.LVL231:
 2270 0010 481B      		sub r20,r24
 2271 0012 590B      		sbc r21,r25
 2272 0014 CF01      		movw r24,r30
 2273 0016 0E94 0000 		call String::lastIndexOf(String const&, unsigned int) const
 2274               	.LVL232:
 2275               	/* epilogue start */
 2276               	.LSM226:
 2277 001a 0895      		ret
 2278               	.LFE76:
 2280               		.section	.text._ZNK6String4trimEv,"ax",@progbits
 2281               	.global	String::trim() const
 2283               	String::trim() const:
 2284               	.LFB84:
 2285               	.LSM227:
 2286               	.LVL233:
 2287 0000 A6E0      		ldi r26,lo8(6)
 2288 0002 B0E0      		ldi r27,hi8(6)
 2289 0004 E0E0      		ldi r30,lo8(gs(1f))
 2290 0006 F0E0      		ldi r31,hi8(gs(1f))
 2291 0008 0C94 0000 		jmp __prologue_saves__+((18 - 10) * 2)
 2292               	1:
 2293               	/* prologue: function */
 2294               	/* frame size = 6 */
 2295 000c 5C01      		movw r10,r24
 2296 000e 8B01      		movw r16,r22
 2297               	.LBB34:
 2298               	.LSM228:
 2299 0010 DB01      		movw r26,r22
 2300 0012 6D91      		ld r22,X+
 2301 0014 7C91      		ld r23,X
 2302               	.LVL234:
 2303 0016 6115      		cp r22,__zero_reg__
 2304 0018 7105      		cpc r23,__zero_reg__
 2305 001a 01F4      		brne .L172
 2306 001c B801      		movw r22,r16
 2307 001e 0E94 0000 		call String::String(String const&)
 2308 0022 00C0      		rjmp .L171
 2309               	.L172:
 2310               	.LSM229:
 2311 0024 CE01      		movw r24,r28
 2312 0026 0196      		adiw r24,1
 2313 0028 0E94 0000 		call String::String(char const*)
 2314               	.LSM230:
 2315 002c F801      		movw r30,r16
 2316 002e E480      		ldd r14,Z+4
 2317 0030 F580      		ldd r15,Z+5
 2318 0032 CC24      		clr r12
 2319 0034 DD24      		clr r13
 2320               	.LVL235:
 2321 0036 00C0      		rjmp .L174
 2322               	.L176:
 2323               	.LSM231:
 2324 0038 D801      		movw r26,r16
 2325 003a ED91      		ld r30,X+
 2326 003c FC91      		ld r31,X
 2327 003e EC0D      		add r30,r12
 2328 0040 FD1D      		adc r31,r13
 2329 0042 8081      		ld r24,Z
 2330 0044 90E0      		ldi r25,lo8(0)
 2331 0046 0E94 0000 		call isspace
 2332 004a 892B      		or r24,r25
 2333 004c 01F0      		breq .L175
 2334               	.LSM232:
 2335 004e 0894      		sec
 2336 0050 C11C      		adc r12,__zero_reg__
 2337 0052 D11C      		adc r13,__zero_reg__
 2338               	.L174:
 2339 0054 CE14      		cp r12,r14
 2340 0056 DF04      		cpc r13,r15
 2341 0058 00F0      		brlo .L176
 2342               	.L175:
 2343               	.LSM233:
 2344 005a ED80      		ldd r14,Y+5
 2345 005c FE80      		ldd r15,Y+6
 2346               	.LVL236:
 2347 005e 00C0      		rjmp .L181
 2348               	.L179:
 2349               	.LSM234:
 2350 0060 D801      		movw r26,r16
 2351 0062 ED91      		ld r30,X+
 2352 0064 FC91      		ld r31,X
 2353 0066 EE0D      		add r30,r14
 2354 0068 FF1D      		adc r31,r15
 2355 006a 8081      		ld r24,Z
 2356 006c 90E0      		ldi r25,lo8(0)
 2357 006e 0E94 0000 		call isspace
 2358 0072 892B      		or r24,r25
 2359 0074 01F0      		breq .L178
 2360               	.L181:
 2361               	.LSM235:
 2362 0076 0894      		sec
 2363 0078 E108      		sbc r14,__zero_reg__
 2364 007a F108      		sbc r15,__zero_reg__
 2365 007c CE14      		cp r12,r14
 2366 007e DF04      		cpc r13,r15
 2367 0080 00F0      		brlo .L179
 2368               	.L178:
 2369               	.LSM236:
 2370 0082 0894      		sec
 2371 0084 E11C      		adc r14,__zero_reg__
 2372 0086 F11C      		adc r15,__zero_reg__
 2373 0088 C501      		movw r24,r10
 2374 008a 8E01      		movw r16,r28
 2375               	.LVL237:
 2376 008c 0F5F      		subi r16,lo8(-(1))
 2377 008e 1F4F      		sbci r17,hi8(-(1))
 2378 0090 B801      		movw r22,r16
 2379 0092 A601      		movw r20,r12
 2380 0094 9701      		movw r18,r14
 2381 0096 0E94 0000 		call String::substring(unsigned int, unsigned int) const
 2382 009a C801      		movw r24,r16
 2383 009c 0E94 0000 		call String::~String()
 2384               	.LVL238:
 2385               	.L171:
 2386               	.LBE34:
 2387               	.LSM237:
 2388 00a0 C501      		movw r24,r10
 2389               	/* epilogue start */
 2390 00a2 2696      		adiw r28,6
 2391 00a4 EAE0      		ldi r30, lo8(10)
 2392 00a6 0C94 0000 		jmp __epilogue_restores__ + ((18 - 10) * 2)
 2393               	.LFE84:
 2395               		.section	.text._ZN6String7replaceERKS_S1_,"ax",@progbits
 2396               	.global	String::replace(String const&, String const&)
 2398               	String::replace(String const&, String const&):
 2399               	.LFB69:
 2400               	.LSM238:
 2401               	.LVL239:
 2402 0000 A8E1      		ldi r26,lo8(24)
 2403 0002 B0E0      		ldi r27,hi8(24)
 2404 0004 E0E0      		ldi r30,lo8(gs(1f))
 2405 0006 F0E0      		ldi r31,hi8(gs(1f))
 2406 0008 0C94 0000 		jmp __prologue_saves__+((18 - 18) * 2)
 2407               	1:
 2408               	/* prologue: function */
 2409               	/* frame size = 24 */
 2410 000c 3C01      		movw r6,r24
 2411 000e FB01      		movw r30,r22
 2412 0010 2A01      		movw r4,r20
 2413 0012 1901      		movw r2,r18
 2414               	.LBB35:
 2415               	.LSM239:
 2416 0014 6081      		ld r22,Z
 2417 0016 7181      		ldd r23,Z+1
 2418               	.LVL240:
 2419 0018 6115      		cp r22,__zero_reg__
 2420 001a 7105      		cpc r23,__zero_reg__
 2421 001c 01F4      		brne .L183
 2422               	.LVL241:
 2423 001e BF01      		movw r22,r30
 2424 0020 0E94 0000 		call String::String(String const&)
 2425               	.LVL242:
 2426 0024 00C0      		rjmp .L182
 2427               	.LVL243:
 2428               	.L183:
 2429               	.LSM240:
 2430 0026 7E01      		movw r14,r28
 2431 0028 0894      		sec
 2432 002a E11C      		adc r14,__zero_reg__
 2433 002c F11C      		adc r15,__zero_reg__
 2434 002e C701      		movw r24,r14
 2435 0030 0E94 0000 		call String::String(char const*)
 2436               	.LVL244:
 2437 0034 8E01      		movw r16,r28
 2438 0036 095F      		subi r16,lo8(-(7))
 2439 0038 1F4F      		sbci r17,hi8(-(7))
 2440 003a C801      		movw r24,r16
 2441 003c 60E0      		ldi r22,lo8(.LC0)
 2442 003e 70E0      		ldi r23,hi8(.LC0)
 2443 0040 0E94 0000 		call String::String(char const*)
 2444 0044 D02E      		mov r13,r16
 2445 0046 C12E      		mov r12,r17
 2446               	.LSM241:
 2447 0048 3DE0      		ldi r19,lo8(13)
 2448 004a 832E      		mov r8,r19
 2449 004c 912C      		mov r9,__zero_reg__
 2450 004e 8C0E      		add r8,r28
 2451 0050 9D1E      		adc r9,r29
 2452               	.LSM242:
 2453 0052 23E1      		ldi r18,lo8(19)
 2454 0054 A22E      		mov r10,r18
 2455 0056 B12C      		mov r11,__zero_reg__
 2456 0058 AC0E      		add r10,r28
 2457 005a BD1E      		adc r11,r29
 2458 005c 00C0      		rjmp .L185
 2459               	.LVL245:
 2460               	.L186:
 2461               	.LSM243:
 2462 005e C401      		movw r24,r8
 2463               	.LVL246:
 2464 0060 B701      		movw r22,r14
 2465 0062 40E0      		ldi r20,lo8(0)
 2466 0064 50E0      		ldi r21,hi8(0)
 2467 0066 9801      		movw r18,r16
 2468 0068 0E94 0000 		call String::substring(unsigned int, unsigned int) const
 2469 006c 8D2D      		mov r24,r13
 2470 006e 9C2D      		mov r25,r12
 2471 0070 B401      		movw r22,r8
 2472 0072 0E94 0000 		call String::operator+=(String const&)
 2473 0076 C401      		movw r24,r8
 2474 0078 0E94 0000 		call String::~String()
 2475               	.LSM244:
 2476 007c 8D2D      		mov r24,r13
 2477 007e 9C2D      		mov r25,r12
 2478 0080 B101      		movw r22,r2
 2479 0082 0E94 0000 		call String::operator+=(String const&)
 2480               	.LSM245:
 2481 0086 F201      		movw r30,r4
 2482 0088 4481      		ldd r20,Z+4
 2483 008a 5581      		ldd r21,Z+5
 2484 008c 400F      		add r20,r16
 2485 008e 511F      		adc r21,r17
 2486 0090 C501      		movw r24,r10
 2487 0092 B701      		movw r22,r14
 2488 0094 0E94 0000 		call String::substring(unsigned int) const
 2489 0098 C701      		movw r24,r14
 2490 009a B501      		movw r22,r10
 2491 009c 0E94 0000 		call String::operator=(String const&)
 2492 00a0 C501      		movw r24,r10
 2493 00a2 0E94 0000 		call String::~String()
 2494               	.L185:
 2495               	.LSM246:
 2496 00a6 C701      		movw r24,r14
 2497 00a8 B201      		movw r22,r4
 2498 00aa 0E94 0000 		call String::indexOf(String const&) const
 2499 00ae 8C01      		movw r16,r24
 2500 00b0 FFEF      		ldi r31,hi8(-1)
 2501 00b2 8F3F      		cpi r24,lo8(-1)
 2502 00b4 9F07      		cpc r25,r31
 2503 00b6 01F4      		brne .L186
 2504               	.LVL247:
 2505               	.LSM247:
 2506 00b8 8D2D      		mov r24,r13
 2507               	.LVL248:
 2508 00ba 9C2D      		mov r25,r12
 2509 00bc B701      		movw r22,r14
 2510 00be 0E94 0000 		call String::operator+=(String const&)
 2511               	.LSM248:
 2512 00c2 C301      		movw r24,r6
 2513 00c4 6D2D      		mov r22,r13
 2514 00c6 7C2D      		mov r23,r12
 2515 00c8 0E94 0000 		call String::String(String const&)
 2516 00cc 8D2D      		mov r24,r13
 2517 00ce 9C2D      		mov r25,r12
 2518 00d0 0E94 0000 		call String::~String()
 2519 00d4 C701      		movw r24,r14
 2520 00d6 0E94 0000 		call String::~String()
 2521               	.L182:
 2522               	.LBE35:
 2523               	.LSM249:
 2524 00da C301      		movw r24,r6
 2525               	/* epilogue start */
 2526 00dc 6896      		adiw r28,24
 2527 00de E2E1      		ldi r30, lo8(18)
 2528 00e0 0C94 0000 		jmp __epilogue_restores__ + ((18 - 18) * 2)
 2529               	.LFE69:
 2531               		.section	.text._ZN6String7replaceEcc,"ax",@progbits
 2532               	.global	String::replace(char, char)
 2534               	String::replace(char, char):
 2535               	.LFB68:
 2536               	.LSM250:
 2537               	.LVL249:
 2538 0000 A6E0      		ldi r26,lo8(6)
 2539 0002 B0E0      		ldi r27,hi8(6)
 2540 0004 E0E0      		ldi r30,lo8(gs(1f))
 2541 0006 F0E0      		ldi r31,hi8(gs(1f))
 2542 0008 0C94 0000 		jmp __prologue_saves__+((18 - 6) * 2)
 2543               	1:
 2544               	/* prologue: function */
 2545               	/* frame size = 6 */
 2546 000c 7C01      		movw r14,r24
 2547 000e FB01      		movw r30,r22
 2548 0010 142F      		mov r17,r20
 2549 0012 022F      		mov r16,r18
 2550               	.LBB36:
 2551               	.LSM251:
 2552 0014 6081      		ld r22,Z
 2553 0016 7181      		ldd r23,Z+1
 2554               	.LVL250:
 2555 0018 6115      		cp r22,__zero_reg__
 2556 001a 7105      		cpc r23,__zero_reg__
 2557 001c 01F4      		brne .L189
 2558               	.LVL251:
 2559 001e BF01      		movw r22,r30
 2560 0020 0E94 0000 		call String::String(String const&)
 2561               	.LVL252:
 2562 0024 00C0      		rjmp .L188
 2563               	.LVL253:
 2564               	.L189:
 2565               	.LSM252:
 2566 0026 CE01      		movw r24,r28
 2567 0028 0196      		adiw r24,1
 2568 002a 0E94 0000 		call String::String(char const*)
 2569               	.LVL254:
 2570               	.LSM253:
 2571 002e E981      		ldd r30,Y+1
 2572 0030 FA81      		ldd r31,Y+2
 2573               	.LVL255:
 2574 0032 00C0      		rjmp .L191
 2575               	.LVL256:
 2576               	.L192:
 2577               	.LSM254:
 2578 0034 0083      		st Z,r16
 2579               	.LVL257:
 2580               	.L191:
 2581               	.LSM255:
 2582 0036 CF01      		movw r24,r30
 2583 0038 612F      		mov r22,r17
 2584 003a 70E0      		ldi r23,lo8(0)
 2585 003c 0E94 0000 		call strchr
 2586               	.LVL258:
 2587 0040 FC01      		movw r30,r24
 2588               	.LVL259:
 2589 0042 0097      		sbiw r24,0
 2590 0044 01F4      		brne .L192
 2591               	.LVL260:
 2592               	.LSM256:
 2593 0046 C701      		movw r24,r14
 2594               	.LVL261:
 2595 0048 8E01      		movw r16,r28
 2596               	.LVL262:
 2597 004a 0F5F      		subi r16,lo8(-(1))
 2598 004c 1F4F      		sbci r17,hi8(-(1))
 2599 004e B801      		movw r22,r16
 2600 0050 0E94 0000 		call String::String(String const&)
 2601               	.LVL263:
 2602 0054 C801      		movw r24,r16
 2603 0056 0E94 0000 		call String::~String()
 2604               	.LVL264:
 2605               	.L188:
 2606               	.LBE36:
 2607               	.LSM257:
 2608 005a C701      		movw r24,r14
 2609               	/* epilogue start */
 2610 005c 2696      		adiw r28,6
 2611 005e E6E0      		ldi r30, lo8(6)
 2612 0060 0C94 0000 		jmp __epilogue_restores__ + ((18 - 6) * 2)
 2613               	.LFE68:
 2615               		.section	.text._ZN6StringC2EPKc,"ax",@progbits
 2616               	.global	String::String(char const*)
 2618               	String::String(char const*):
 2619               	.LFB28:
 2620               	.LSM258:
 2621               	.LVL265:
 2622 0000 0F93      		push r16
 2623 0002 1F93      		push r17
 2624 0004 CF93      		push r28
 2625 0006 DF93      		push r29
 2626               	/* prologue: function */
 2627               	/* frame size = 0 */
 2628 0008 8C01      		movw r16,r24
 2629 000a EB01      		movw r28,r22
 2630               	.LBB37:
 2631               	.LSM259:
 2632 000c 6115      		cp r22,__zero_reg__
 2633 000e 7105      		cpc r23,__zero_reg__
 2634 0010 01F4      		brne .L195
 2635               	.LVL266:
 2636 0012 C0E0      		ldi r28,lo8(.LC0)
 2637 0014 D0E0      		ldi r29,hi8(.LC0)
 2638               	.LVL267:
 2639               	.L195:
 2640               	.LSM260:
 2641 0016 CE01      		movw r24,r28
 2642 0018 0E94 0000 		call strlen
 2643 001c BC01      		movw r22,r24
 2644 001e F801      		movw r30,r16
 2645 0020 9583      		std Z+5,r25
 2646 0022 8483      		std Z+4,r24
 2647 0024 C801      		movw r24,r16
 2648 0026 0E94 0000 		call String::getBuffer(unsigned int)
 2649               	.LSM261:
 2650 002a F801      		movw r30,r16
 2651 002c 8081      		ld r24,Z
 2652 002e 9181      		ldd r25,Z+1
 2653 0030 0097      		sbiw r24,0
 2654 0032 01F0      		breq .L197
 2655               	.LSM262:
 2656 0034 BE01      		movw r22,r28
 2657 0036 0E94 0000 		call strcpy
 2658               	.L197:
 2659               	/* epilogue start */
 2660               	.LBE37:
 2661               	.LSM263:
 2662 003a DF91      		pop r29
 2663 003c CF91      		pop r28
 2664               	.LVL268:
 2665 003e 1F91      		pop r17
 2666 0040 0F91      		pop r16
 2667               	.LVL269:
 2668 0042 0895      		ret
 2669               	.LFE28:
 2671               		.section	.text._ZN6StringC1Eli,"ax",@progbits
 2672               	.global	String::String(long, int)
 2674               	String::String(long, int):
 2675               	.LFB47:
 2676               	.LSM264:
 2677               	.LVL270:
 2678 0000 A1E2      		ldi r26,lo8(33)
 2679 0002 B0E0      		ldi r27,hi8(33)
 2680 0004 E0E0      		ldi r30,lo8(gs(1f))
 2681 0006 F0E0      		ldi r31,hi8(gs(1f))
 2682 0008 0C94 0000 		jmp __prologue_saves__+((18 - 6) * 2)
 2683               	1:
 2684               	/* prologue: function */
 2685               	/* frame size = 33 */
 2686 000c 8C01      		movw r16,r24
 2687               	.LBB38:
 2688               	.LBB39:
 2689               	.LSM265:
 2690 000e CB01      		movw r24,r22
 2691 0010 BA01      		movw r22,r20
 2692 0012 7E01      		movw r14,r28
 2693 0014 0894      		sec
 2694 0016 E11C      		adc r14,__zero_reg__
 2695 0018 F11C      		adc r15,__zero_reg__
 2696 001a A701      		movw r20,r14
 2697               	.LVL271:
 2698 001c 0E94 0000 		call ltoa
 2699               	.LVL272:
 2700               	.LSM266:
 2701 0020 C701      		movw r24,r14
 2702 0022 0E94 0000 		call strlen
 2703 0026 BC01      		movw r22,r24
 2704 0028 F801      		movw r30,r16
 2705 002a 9583      		std Z+5,r25
 2706 002c 8483      		std Z+4,r24
 2707 002e C801      		movw r24,r16
 2708 0030 0E94 0000 		call String::getBuffer(unsigned int)
 2709               	.LSM267:
 2710 0034 F801      		movw r30,r16
 2711 0036 8081      		ld r24,Z
 2712 0038 9181      		ldd r25,Z+1
 2713 003a 0097      		sbiw r24,0
 2714 003c 01F0      		breq .L200
 2715               	.LSM268:
 2716 003e B701      		movw r22,r14
 2717 0040 0E94 0000 		call strcpy
 2718               	.L200:
 2719               	/* epilogue start */
 2720               	.LBE39:
 2721               	.LBE38:
 2722               	.LSM269:
 2723 0044 A196      		adiw r28,33
 2724 0046 E6E0      		ldi r30, lo8(6)
 2725 0048 0C94 0000 		jmp __epilogue_restores__ + ((18 - 6) * 2)
 2726               	.LFE47:
 2728               		.section	.text._ZN6StringC2Eli,"ax",@progbits
 2729               	.global	String::String(long, int)
 2731               	String::String(long, int):
 2732               	.LFB46:
 2733               	.LSM270:
 2734               	.LVL273:
 2735 0000 A1E2      		ldi r26,lo8(33)
 2736 0002 B0E0      		ldi r27,hi8(33)
 2737 0004 E0E0      		ldi r30,lo8(gs(1f))
 2738 0006 F0E0      		ldi r31,hi8(gs(1f))
 2739 0008 0C94 0000 		jmp __prologue_saves__+((18 - 6) * 2)
 2740               	1:
 2741               	/* prologue: function */
 2742               	/* frame size = 33 */
 2743 000c 8C01      		movw r16,r24
 2744               	.LBB40:
 2745               	.LBB41:
 2746               	.LSM271:
 2747 000e CB01      		movw r24,r22
 2748 0010 BA01      		movw r22,r20
 2749 0012 7E01      		movw r14,r28
 2750 0014 0894      		sec
 2751 0016 E11C      		adc r14,__zero_reg__
 2752 0018 F11C      		adc r15,__zero_reg__
 2753 001a A701      		movw r20,r14
 2754               	.LVL274:
 2755 001c 0E94 0000 		call ltoa
 2756               	.LVL275:
 2757               	.LSM272:
 2758 0020 C701      		movw r24,r14
 2759 0022 0E94 0000 		call strlen
 2760 0026 BC01      		movw r22,r24
 2761 0028 F801      		movw r30,r16
 2762 002a 9583      		std Z+5,r25
 2763 002c 8483      		std Z+4,r24
 2764 002e C801      		movw r24,r16
 2765 0030 0E94 0000 		call String::getBuffer(unsigned int)
 2766               	.LSM273:
 2767 0034 F801      		movw r30,r16
 2768 0036 8081      		ld r24,Z
 2769 0038 9181      		ldd r25,Z+1
 2770 003a 0097      		sbiw r24,0
 2771 003c 01F0      		breq .L203
 2772               	.LSM274:
 2773 003e B701      		movw r22,r14
 2774 0040 0E94 0000 		call strcpy
 2775               	.L203:
 2776               	/* epilogue start */
 2777               	.LBE41:
 2778               	.LBE40:
 2779               	.LSM275:
 2780 0044 A196      		adiw r28,33
 2781 0046 E6E0      		ldi r30, lo8(6)
 2782 0048 0C94 0000 		jmp __epilogue_restores__ + ((18 - 6) * 2)
 2783               	.LFE46:
 2785               		.section	.text._ZN6StringC1Eii,"ax",@progbits
 2786               	.global	String::String(int, int)
 2788               	String::String(int, int):
 2789               	.LFB41:
 2790               	.LSM276:
 2791               	.LVL276:
 2792 0000 A1E2      		ldi r26,lo8(33)
 2793 0002 B0E0      		ldi r27,hi8(33)
 2794 0004 E0E0      		ldi r30,lo8(gs(1f))
 2795 0006 F0E0      		ldi r31,hi8(gs(1f))
 2796 0008 0C94 0000 		jmp __prologue_saves__+((18 - 6) * 2)
 2797               	1:
 2798               	/* prologue: function */
 2799               	/* frame size = 33 */
 2800 000c 8C01      		movw r16,r24
 2801 000e CB01      		movw r24,r22
 2802               	.LVL277:
 2803               	.LBB42:
 2804               	.LBB43:
 2805               	.LSM277:
 2806 0010 7E01      		movw r14,r28
 2807 0012 0894      		sec
 2808 0014 E11C      		adc r14,__zero_reg__
 2809 0016 F11C      		adc r15,__zero_reg__
 2810 0018 B701      		movw r22,r14
 2811               	.LVL278:
 2812 001a 0E94 0000 		call itoa
 2813               	.LVL279:
 2814               	.LSM278:
 2815 001e C701      		movw r24,r14
 2816 0020 0E94 0000 		call strlen
 2817 0024 BC01      		movw r22,r24
 2818 0026 F801      		movw r30,r16
 2819 0028 9583      		std Z+5,r25
 2820 002a 8483      		std Z+4,r24
 2821 002c C801      		movw r24,r16
 2822 002e 0E94 0000 		call String::getBuffer(unsigned int)
 2823               	.LSM279:
 2824 0032 F801      		movw r30,r16
 2825 0034 8081      		ld r24,Z
 2826 0036 9181      		ldd r25,Z+1
 2827 0038 0097      		sbiw r24,0
 2828 003a 01F0      		breq .L206
 2829               	.LSM280:
 2830 003c B701      		movw r22,r14
 2831 003e 0E94 0000 		call strcpy
 2832               	.L206:
 2833               	/* epilogue start */
 2834               	.LBE43:
 2835               	.LBE42:
 2836               	.LSM281:
 2837 0042 A196      		adiw r28,33
 2838 0044 E6E0      		ldi r30, lo8(6)
 2839 0046 0C94 0000 		jmp __epilogue_restores__ + ((18 - 6) * 2)
 2840               	.LFE41:
 2842               		.section	.text._ZN6StringC2Eii,"ax",@progbits
 2843               	.global	String::String(int, int)
 2845               	String::String(int, int):
 2846               	.LFB40:
 2847               	.LSM282:
 2848               	.LVL280:
 2849 0000 A1E2      		ldi r26,lo8(33)
 2850 0002 B0E0      		ldi r27,hi8(33)
 2851 0004 E0E0      		ldi r30,lo8(gs(1f))
 2852 0006 F0E0      		ldi r31,hi8(gs(1f))
 2853 0008 0C94 0000 		jmp __prologue_saves__+((18 - 6) * 2)
 2854               	1:
 2855               	/* prologue: function */
 2856               	/* frame size = 33 */
 2857 000c 8C01      		movw r16,r24
 2858 000e CB01      		movw r24,r22
 2859               	.LVL281:
 2860               	.LBB44:
 2861               	.LBB45:
 2862               	.LSM283:
 2863 0010 7E01      		movw r14,r28
 2864 0012 0894      		sec
 2865 0014 E11C      		adc r14,__zero_reg__
 2866 0016 F11C      		adc r15,__zero_reg__
 2867 0018 B701      		movw r22,r14
 2868               	.LVL282:
 2869 001a 0E94 0000 		call itoa
 2870               	.LVL283:
 2871               	.LSM284:
 2872 001e C701      		movw r24,r14
 2873 0020 0E94 0000 		call strlen
 2874 0024 BC01      		movw r22,r24
 2875 0026 F801      		movw r30,r16
 2876 0028 9583      		std Z+5,r25
 2877 002a 8483      		std Z+4,r24
 2878 002c C801      		movw r24,r16
 2879 002e 0E94 0000 		call String::getBuffer(unsigned int)
 2880               	.LSM285:
 2881 0032 F801      		movw r30,r16
 2882 0034 8081      		ld r24,Z
 2883 0036 9181      		ldd r25,Z+1
 2884 0038 0097      		sbiw r24,0
 2885 003a 01F0      		breq .L209
 2886               	.LSM286:
 2887 003c B701      		movw r22,r14
 2888 003e 0E94 0000 		call strcpy
 2889               	.L209:
 2890               	/* epilogue start */
 2891               	.LBE45:
 2892               	.LBE44:
 2893               	.LSM287:
 2894 0042 A196      		adiw r28,33
 2895 0044 E6E0      		ldi r30, lo8(6)
 2896 0046 0C94 0000 		jmp __epilogue_restores__ + ((18 - 6) * 2)
 2897               	.LFE40:
 2899               		.section	.bss._ZZN6StringixEjE19dummy_writable_char,"aw",@nobits
 2902               	String::operator[](unsigned int)::dummy_writable_char:
 2903 0000 00        		.skip 1,0
 3360               	.Letext0:
DEFINED SYMBOLS
                            *ABS*:00000000 WString.cpp
/var/folders/6v/2vwt01v529l7cbx7ts4b06bm0000gn/T//ccMLv9AK.s:2      *ABS*:0000003f __SREG__
/var/folders/6v/2vwt01v529l7cbx7ts4b06bm0000gn/T//ccMLv9AK.s:3      *ABS*:0000003e __SP_H__
/var/folders/6v/2vwt01v529l7cbx7ts4b06bm0000gn/T//ccMLv9AK.s:4      *ABS*:0000003d __SP_L__
/var/folders/6v/2vwt01v529l7cbx7ts4b06bm0000gn/T//ccMLv9AK.s:5      *ABS*:00000034 __CCP__
/var/folders/6v/2vwt01v529l7cbx7ts4b06bm0000gn/T//ccMLv9AK.s:6      *ABS*:00000000 __tmp_reg__
/var/folders/6v/2vwt01v529l7cbx7ts4b06bm0000gn/T//ccMLv9AK.s:7      *ABS*:00000001 __zero_reg__
/var/folders/6v/2vwt01v529l7cbx7ts4b06bm0000gn/T//ccMLv9AK.s:21     .text._ZN6String9setCharAtEjc:00000000 String::setCharAt(unsigned int, char)
/var/folders/6v/2vwt01v529l7cbx7ts4b06bm0000gn/T//ccMLv9AK.s:55     .text._ZN6StringixEj:00000000 String::operator[](unsigned int)
/var/folders/6v/2vwt01v529l7cbx7ts4b06bm0000gn/T//ccMLv9AK.s:2902   .bss._ZZN6StringixEjE19dummy_writable_char:00000000 String::operator[](unsigned int)::dummy_writable_char
/var/folders/6v/2vwt01v529l7cbx7ts4b06bm0000gn/T//ccMLv9AK.s:99     .text._ZNK6StringixEj:00000000 String::operator[](unsigned int) const
/var/folders/6v/2vwt01v529l7cbx7ts4b06bm0000gn/T//ccMLv9AK.s:122    .text._ZNK6String6charAtEj:00000000 String::charAt(unsigned int) const
/var/folders/6v/2vwt01v529l7cbx7ts4b06bm0000gn/T//ccMLv9AK.s:139    .text._ZN6String5toIntEv:00000000 String::toInt()
/var/folders/6v/2vwt01v529l7cbx7ts4b06bm0000gn/T//ccMLv9AK.s:160    .text._ZN6String11toCharArrayEPcj:00000000 String::toCharArray(char*, unsigned int)
/var/folders/6v/2vwt01v529l7cbx7ts4b06bm0000gn/T//ccMLv9AK.s:223    .text._ZN6String8getBytesEPhj:00000000 String::getBytes(unsigned char*, unsigned int)
/var/folders/6v/2vwt01v529l7cbx7ts4b06bm0000gn/T//ccMLv9AK.s:286    .text._ZN6StringD1Ev:00000000 String::~String()
/var/folders/6v/2vwt01v529l7cbx7ts4b06bm0000gn/T//ccMLv9AK.s:316    .text._ZNK6String10startsWithERKS_j:00000000 String::startsWith(String const&, unsigned int) const
/var/folders/6v/2vwt01v529l7cbx7ts4b06bm0000gn/T//ccMLv9AK.s:367    .text._ZNK6String10startsWithERKS_:00000000 String::startsWith(String const&) const
/var/folders/6v/2vwt01v529l7cbx7ts4b06bm0000gn/T//ccMLv9AK.s:403    .text._ZNK6String11lastIndexOfEcj:00000000 String::lastIndexOf(char, unsigned int) const
/var/folders/6v/2vwt01v529l7cbx7ts4b06bm0000gn/T//ccMLv9AK.s:485    .text._ZNK6String11lastIndexOfEc:00000000 String::lastIndexOf(char) const
/var/folders/6v/2vwt01v529l7cbx7ts4b06bm0000gn/T//ccMLv9AK.s:507    .text._ZNK6String7indexOfERKS_j:00000000 String::indexOf(String const&, unsigned int) const
/var/folders/6v/2vwt01v529l7cbx7ts4b06bm0000gn/T//ccMLv9AK.s:567    .text._ZNK6String7indexOfERKS_:00000000 String::indexOf(String const&) const
/var/folders/6v/2vwt01v529l7cbx7ts4b06bm0000gn/T//ccMLv9AK.s:586    .text._ZNK6String7indexOfEcj:00000000 String::indexOf(char, unsigned int) const
/var/folders/6v/2vwt01v529l7cbx7ts4b06bm0000gn/T//ccMLv9AK.s:643    .text._ZNK6String7indexOfEc:00000000 String::indexOf(char) const
/var/folders/6v/2vwt01v529l7cbx7ts4b06bm0000gn/T//ccMLv9AK.s:662    .text._ZNK6String6equalsERKS_:00000000 String::equals(String const&) const
/var/folders/6v/2vwt01v529l7cbx7ts4b06bm0000gn/T//ccMLv9AK.s:706    .text._ZNK6String8endsWithERKS_:00000000 String::endsWith(String const&) const
/var/folders/6v/2vwt01v529l7cbx7ts4b06bm0000gn/T//ccMLv9AK.s:755    .text._ZNK6StringgeERKS_:00000000 String::operator>=(String const&) const
/var/folders/6v/2vwt01v529l7cbx7ts4b06bm0000gn/T//ccMLv9AK.s:791    .text._ZNK6StringleERKS_:00000000 String::operator<=(String const&) const
/var/folders/6v/2vwt01v529l7cbx7ts4b06bm0000gn/T//ccMLv9AK.s:825    .text._ZNK6StringgtERKS_:00000000 String::operator>(String const&) const
/var/folders/6v/2vwt01v529l7cbx7ts4b06bm0000gn/T//ccMLv9AK.s:859    .text._ZNK6StringltERKS_:00000000 String::operator<(String const&) const
/var/folders/6v/2vwt01v529l7cbx7ts4b06bm0000gn/T//ccMLv9AK.s:893    .text._ZNK6StringneERKS_:00000000 String::operator!=(String const&) const
/var/folders/6v/2vwt01v529l7cbx7ts4b06bm0000gn/T//ccMLv9AK.s:937    .text._ZNK6StringeqERKS_:00000000 String::operator==(String const&) const
/var/folders/6v/2vwt01v529l7cbx7ts4b06bm0000gn/T//ccMLv9AK.s:982    .text._ZNK6String9compareToERKS_:00000000 String::compareTo(String const&) const
/var/folders/6v/2vwt01v529l7cbx7ts4b06bm0000gn/T//ccMLv9AK.s:1007   .text._ZN6StringpLERKS_:00000000 String::operator+=(String const&)
/var/folders/6v/2vwt01v529l7cbx7ts4b06bm0000gn/T//ccMLv9AK.s:1097   .text._ZN6String6concatERKS_:00000000 String::concat(String const&)
/var/folders/6v/2vwt01v529l7cbx7ts4b06bm0000gn/T//ccMLv9AK.s:1114   .text._ZN6String9getBufferEj:00000000 String::getBuffer(unsigned int)
/var/folders/6v/2vwt01v529l7cbx7ts4b06bm0000gn/T//ccMLv9AK.s:1153   .text._ZN6StringaSERKS_:00000000 String::operator=(String const&)
/var/folders/6v/2vwt01v529l7cbx7ts4b06bm0000gn/T//ccMLv9AK.s:1226   .text._ZN6StringC1Eh:00000000 String::String(unsigned char)
/var/folders/6v/2vwt01v529l7cbx7ts4b06bm0000gn/T//ccMLv9AK.s:1276   .text._ZN6StringC2Eh:00000000 String::String(unsigned char)
/var/folders/6v/2vwt01v529l7cbx7ts4b06bm0000gn/T//ccMLv9AK.s:1326   .text._ZN6StringC1Ec:00000000 String::String(char)
/var/folders/6v/2vwt01v529l7cbx7ts4b06bm0000gn/T//ccMLv9AK.s:1376   .text._ZN6StringC2Ec:00000000 String::String(char)
/var/folders/6v/2vwt01v529l7cbx7ts4b06bm0000gn/T//ccMLv9AK.s:1426   .text._ZN6StringC1ERKS_:00000000 String::String(String const&)
/var/folders/6v/2vwt01v529l7cbx7ts4b06bm0000gn/T//ccMLv9AK.s:1474   .text._ZN6StringC2ERKS_:00000000 String::String(String const&)
/var/folders/6v/2vwt01v529l7cbx7ts4b06bm0000gn/T//ccMLv9AK.s:1522   .text._ZN6StringC1Emi:00000000 String::String(unsigned long, int)
/var/folders/6v/2vwt01v529l7cbx7ts4b06bm0000gn/T//ccMLv9AK.s:1582   .text._ZN6StringC2Emi:00000000 String::String(unsigned long, int)
/var/folders/6v/2vwt01v529l7cbx7ts4b06bm0000gn/T//ccMLv9AK.s:1642   .text._ZN6StringC1Eji:00000000 String::String(unsigned int, int)
/var/folders/6v/2vwt01v529l7cbx7ts4b06bm0000gn/T//ccMLv9AK.s:1701   .text._ZN6StringC2Eji:00000000 String::String(unsigned int, int)
/var/folders/6v/2vwt01v529l7cbx7ts4b06bm0000gn/T//ccMLv9AK.s:1763   .text._ZN6StringC1EPKc:00000000 String::String(char const*)
/var/folders/6v/2vwt01v529l7cbx7ts4b06bm0000gn/T//ccMLv9AK.s:1819   .text._ZNK6String11toUpperCaseEv:00000000 String::toUpperCase() const
/var/folders/6v/2vwt01v529l7cbx7ts4b06bm0000gn/T//ccMLv9AK.s:1887   .text._ZNK6String11toLowerCaseEv:00000000 String::toLowerCase() const
/var/folders/6v/2vwt01v529l7cbx7ts4b06bm0000gn/T//ccMLv9AK.s:1955   .text._ZNK6String16equalsIgnoreCaseERKS_:00000000 String::equalsIgnoreCase(String const&) const
/var/folders/6v/2vwt01v529l7cbx7ts4b06bm0000gn/T//ccMLv9AK.s:2033   .text._ZNK6String9substringEjj:00000000 String::substring(unsigned int, unsigned int) const
/var/folders/6v/2vwt01v529l7cbx7ts4b06bm0000gn/T//ccMLv9AK.s:2118   .text._ZNK6String9substringEj:00000000 String::substring(unsigned int) const
/var/folders/6v/2vwt01v529l7cbx7ts4b06bm0000gn/T//ccMLv9AK.s:2144   .text._ZNK6String11lastIndexOfERKS_j:00000000 String::lastIndexOf(String const&, unsigned int) const
/var/folders/6v/2vwt01v529l7cbx7ts4b06bm0000gn/T//ccMLv9AK.s:2254   .text._ZNK6String11lastIndexOfERKS_:00000000 String::lastIndexOf(String const&) const
/var/folders/6v/2vwt01v529l7cbx7ts4b06bm0000gn/T//ccMLv9AK.s:2283   .text._ZNK6String4trimEv:00000000 String::trim() const
/var/folders/6v/2vwt01v529l7cbx7ts4b06bm0000gn/T//ccMLv9AK.s:2398   .text._ZN6String7replaceERKS_S1_:00000000 String::replace(String const&, String const&)
/var/folders/6v/2vwt01v529l7cbx7ts4b06bm0000gn/T//ccMLv9AK.s:2534   .text._ZN6String7replaceEcc:00000000 String::replace(char, char)
/var/folders/6v/2vwt01v529l7cbx7ts4b06bm0000gn/T//ccMLv9AK.s:2618   .text._ZN6StringC2EPKc:00000000 String::String(char const*)
/var/folders/6v/2vwt01v529l7cbx7ts4b06bm0000gn/T//ccMLv9AK.s:2674   .text._ZN6StringC1Eli:00000000 String::String(long, int)
/var/folders/6v/2vwt01v529l7cbx7ts4b06bm0000gn/T//ccMLv9AK.s:2731   .text._ZN6StringC2Eli:00000000 String::String(long, int)
/var/folders/6v/2vwt01v529l7cbx7ts4b06bm0000gn/T//ccMLv9AK.s:2788   .text._ZN6StringC1Eii:00000000 String::String(int, int)
/var/folders/6v/2vwt01v529l7cbx7ts4b06bm0000gn/T//ccMLv9AK.s:2845   .text._ZN6StringC2Eii:00000000 String::String(int, int)

UNDEFINED SYMBOLS
__do_copy_data
__do_clear_bss
atol
strncpy
free
strncmp
__prologue_saves__
strrchr
__epilogue_restores__
strstr
strchr
strcmp
realloc
strcat
malloc
strcpy
ultoa
strlen
toupper
tolower
isspace
ltoa
itoa
